(dp1
S'A12LSQUVWIJVMV:3QAVNHZ3EM5A0D5JYU2FVRVJW1ILA2'
p2
(lp3
(dp4
Vrt
p5
I115543
sVc_id
p6
I574
sVphase
p7
VFINAL-OVERALL
p8
sVbackground
p9
V1
sVoverall1
p10
V5
sVoverall3
p11
V3
sVoverall2
p12
V1
sVoverall4
p13
V1
sa(dp14
Vrt
p15
I40819
sVc_id
p16
I49
sVphase
p17
VFINAL-OVERALL
p18
sVbackground
p19
V1
sVoverall1
p20
V5
sVoverall3
p21
V1
sVoverall2
p22
V4
sVoverall4
p23
V5
sa(dp24
Vrt
p25
I53140
sVc_id
p26
I212
sVphase
p27
VFINAL-OVERALL
p28
sVbackground
p29
V1
sVoverall1
p30
V5
sVoverall3
p31
V3
sVoverall2
p32
V5
sVoverall4
p33
V1
sa(dp34
Vrt
p35
I26326
sVc_id
p36
I537
sVphase
p37
VFINAL-OVERALL
p38
sVbackground
p39
V1
sVoverall1
p40
V5
sVoverall3
p41
V4
sVoverall2
p42
V1
sVoverall4
p43
V2
sa(dp44
Vrt
p45
I28948
sVc_id
p46
I427
sVphase
p47
VFINAL-OVERALL
p48
sVbackground
p49
V1
sVoverall1
p50
V5
sVoverall3
p51
V1
sVoverall2
p52
V4
sVoverall4
p53
V1
sa(dp54
Vrt
p55
I38116
sVc_id
p56
I-2
sVphase
p57
VFINAL-OVERALL
p58
sVbackground
p59
V1
sVoverall1
p60
V3
sVoverall3
p61
V1
sVoverall2
p62
V5
sVoverall4
p63
V1
sa(dp64
Vrt
p65
I44225
sVc_id
p66
I187
sVphase
p67
VFINAL-OVERALL
p68
sVbackground
p69
V1
sVoverall1
p70
V5
sVoverall3
p71
V3
sVoverall2
p72
V1
sVoverall4
p73
V1
sa(dp74
Vrt
p75
I36617
sVc_id
p76
I796
sVphase
p77
VFINAL-OVERALL
p78
sVbackground
p79
V1
sVoverall1
p80
V1
sVoverall3
p81
V5
sVoverall2
p82
V3
sVoverall4
p83
V1
sa(dp84
Vrt
p85
I36261
sVc_id
p86
I657
sVphase
p87
VFINAL-OVERALL
p88
sVbackground
p89
V1
sVoverall1
p90
V2
sVoverall3
p91
V4
sVoverall2
p92
V1
sVoverall4
p93
V5
sa(dp94
Vrt
p95
I46430
sVc_id
p96
I206
sVphase
p97
VFINAL-OVERALL
p98
sVbackground
p99
V0
sVoverall1
p100
V5
sVoverall3
p101
V2
sVoverall2
p102
V5
sVoverall4
p103
V1
sa(dp104
Vrt
p105
I46075
sVc_id
p106
I317
sVphase
p107
VFINAL-OVERALL
p108
sVbackground
p109
V1
sVoverall1
p110
V5
sVoverall3
p111
V1
sVoverall2
p112
V2
sVoverall4
p113
V4
sa(dp114
Vrt
p115
I35979
sVc_id
p116
I117
sVphase
p117
VFINAL-OVERALL
p118
sVbackground
p119
V1
sVoverall1
p120
V2
sVoverall3
p121
V5
sVoverall2
p122
V5
sVoverall4
p123
V1
sa(dp124
Vrt
p125
I43003
sVc_id
p126
I593
sVphase
p127
VFINAL-OVERALL
p128
sVbackground
p129
V1
sVoverall1
p130
V5
sVoverall3
p131
V5
sVoverall2
p132
V4
sVoverall4
p133
V3
sa(dp134
Vrt
p135
I41984
sVc_id
p136
I113
sVphase
p137
VFINAL-OVERALL
p138
sVbackground
p139
V0
sVoverall1
p140
V5
sVoverall3
p141
V1
sVoverall2
p142
V3
sVoverall4
p143
V2
sa(dp144
Vrt
p145
I31683
sVc_id
p146
I985
sVphase
p147
VFINAL-OVERALL
p148
sVbackground
p149
V1
sVoverall1
p150
V1
sVoverall3
p151
V5
sVoverall2
p152
V3
sVoverall4
p153
V3
sa(dp154
Vrt
p155
I34148
sVc_id
p156
I104
sVphase
p157
VFINAL-OVERALL
p158
sVbackground
p159
V1
sVoverall1
p160
V5
sVoverall3
p161
V1
sVoverall2
p162
V2
sVoverall4
p163
V2
sa(dp164
Vrt
p165
I49795
sVc_id
p166
I936
sVphase
p167
VFINAL-OVERALL
p168
sVbackground
p169
V1
sVoverall1
p170
V4
sVoverall3
p171
V1
sVoverall2
p172
V1
sVoverall4
p173
V4
sa(dp174
Vrt
p175
I66329
sVc_id
p176
I690
sVphase
p177
VFINAL-OVERALL
p178
sVbackground
p179
V1
sVoverall1
p180
V1
sVoverall3
p181
V5
sVoverall2
p182
V3
sVoverall4
p183
V1
sa(dp184
Vrt
p185
I32238
sVc_id
p186
I130
sVphase
p187
VFINAL-OVERALL
p188
sVbackground
p189
V1
sVoverall1
p190
V1
sVoverall3
p191
V1
sVoverall2
p192
V5
sVoverall4
p193
V1
sa(dp194
Vrt
p195
I32698
sVc_id
p196
I847
sVphase
p197
VFINAL-OVERALL
p198
sVbackground
p199
V1
sVoverall1
p200
V1
sVoverall3
p201
V5
sVoverall2
p202
V1
sVoverall4
p203
V1
sa(dp204
Vrt
p205
I30193
sVc_id
p206
I476
sVphase
p207
VFINAL-OVERALL
p208
sVbackground
p209
V1
sVoverall1
p210
V1
sVoverall3
p211
V5
sVoverall2
p212
V1
sVoverall4
p213
V1
sa(dp214
Vrt
p215
I23514
sVc_id
p216
I184
sVphase
p217
VFINAL-OVERALL
p218
sVbackground
p219
V1
sVoverall1
p220
V5
sVoverall3
p221
V1
sVoverall2
p222
V1
sVoverall4
p223
V1
sa(dp224
Vrt
p225
I20587
sVc_id
p226
I-4
sVphase
p227
VFINAL-OVERALL
p228
sVbackground
p229
V1
sVoverall1
p230
V5
sVoverall3
p231
V1
sVoverall2
p232
V5
sVoverall4
p233
V1
sa(dp234
Vrt
p235
I28026
sVc_id
p236
I400
sVphase
p237
VFINAL-OVERALL
p238
sVbackground
p239
V1
sVoverall1
p240
V5
sVoverall3
p241
V5
sVoverall2
p242
V1
sVoverall4
p243
V2
sa(dp244
Vrt
p245
I26740
sVc_id
p246
I535
sVphase
p247
VFINAL-OVERALL
p248
sVbackground
p249
V1
sVoverall1
p250
V1
sVoverall3
p251
V1
sVoverall2
p252
V5
sVoverall4
p253
V4
sa(dp254
Vrt
p255
I24268
sVc_id
p256
I976
sVphase
p257
VFINAL-OVERALL
p258
sVbackground
p259
V1
sVoverall1
p260
V3
sVoverall3
p261
V5
sVoverall2
p262
V1
sVoverall4
p263
V1
sa(dp264
Vrt
p265
I25545
sVc_id
p266
I273
sVphase
p267
VFINAL-OVERALL
p268
sVbackground
p269
V1
sVoverall1
p270
V5
sVoverall3
p271
V5
sVoverall2
p272
V1
sVoverall4
p273
V3
sa(dp274
Vrt
p275
I37528
sVc_id
p276
I473
sVphase
p277
VFINAL-OVERALL
p278
sVbackground
p279
V1
sVoverall1
p280
V5
sVoverall3
p281
V1
sVoverall2
p282
V1
sVoverall4
p283
V1
sa(dp284
Vrt
p285
I43117
sVc_id
p286
I456
sVphase
p287
VFINAL-OVERALL
p288
sVbackground
p289
V1
sVoverall1
p290
V1
sVoverall3
p291
V1
sVoverall2
p292
V1
sVoverall4
p293
V1
sa(dp294
Vrt
p295
I49756
sVc_id
p296
I664
sVphase
p297
VFINAL-OVERALL
p298
sVbackground
p299
V1
sVoverall1
p300
V1
sVoverall3
p301
V5
sVoverall2
p302
V1
sVoverall4
p303
V5
sa(dp304
Vrt
p305
I47153
sVc_id
p306
I641
sVphase
p307
VFINAL-OVERALL
p308
sVbackground
p309
V0
sVoverall1
p310
V2
sVoverall3
p311
V4
sVoverall2
p312
V1
sVoverall4
p313
V1
sa(dp314
Vrt
p315
I37396
sVc_id
p316
I700
sVphase
p317
VFINAL-OVERALL
p318
sVbackground
p319
V1
sVoverall1
p320
V3
sVoverall3
p321
V1
sVoverall2
p322
V1
sVoverall4
p323
V1
sa(dp324
Vrt
p325
I47219
sVc_id
p326
I89
sVphase
p327
VFINAL-OVERALL
p328
sVbackground
p329
V1
sVoverall1
p330
V3
sVoverall3
p331
V1
sVoverall2
p332
V5
sVoverall4
p333
V4
sa(dp334
Vrt
p335
I25999
sVc_id
p336
I591
sVphase
p337
VFINAL-OVERALL
p338
sVbackground
p339
V1
sVoverall1
p340
V1
sVoverall3
p341
V5
sVoverall2
p342
V5
sVoverall4
p343
V1
sa(dp344
Vrt
p345
I27304
sVc_id
p346
I826
sVphase
p347
VFINAL-OVERALL
p348
sVbackground
p349
V1
sVoverall1
p350
V4
sVoverall3
p351
V1
sVoverall2
p352
V1
sVoverall4
p353
V1
sa(dp354
Vrt
p355
I32189
sVc_id
p356
I182
sVphase
p357
VFINAL-OVERALL
p358
sVbackground
p359
V1
sVoverall1
p360
V5
sVoverall3
p361
V1
sVoverall2
p362
V5
sVoverall4
p363
V1
sa(dp364
Vrt
p365
I40221
sVc_id
p366
I598
sVphase
p367
VFINAL-OVERALL
p368
sVbackground
p369
V1
sVoverall1
p370
V3
sVoverall3
p371
V1
sVoverall2
p372
V5
sVoverall4
p373
V1
sa(dp374
Vrt
p375
I20154
sVc_id
p376
I-1
sVphase
p377
VFINAL-OVERALL
p378
sVbackground
p379
V1
sVoverall1
p380
V5
sVoverall3
p381
V1
sVoverall2
p382
V5
sVoverall4
p383
V1
sa(dp384
Vrt
p385
I24063
sVc_id
p386
I882
sVphase
p387
VFINAL-OVERALL
p388
sVbackground
p389
V1
sVoverall1
p390
V5
sVoverall3
p391
V1
sVoverall2
p392
V1
sVoverall4
p393
V1
sa(dp394
Vrt
p395
I59652
sVc_id
p396
I259
sVphase
p397
VFINAL-OVERALL
p398
sVbackground
p399
V1
sVoverall1
p400
V2
sVoverall3
p401
V1
sVoverall2
p402
V1
sVoverall4
p403
V5
sa(dp404
Vrt
p405
I42377
sVc_id
p406
I774
sVphase
p407
VFINAL-OVERALL
p408
sVbackground
p409
V1
sVoverall1
p410
V1
sVoverall3
p411
V1
sVoverall2
p412
V3
sVoverall4
p413
V5
sa(dp414
Vrt
p415
I34880
sVc_id
p416
I604
sVphase
p417
VFINAL-OVERALL
p418
sVbackground
p419
V1
sVoverall1
p420
V1
sVoverall3
p421
V5
sVoverall2
p422
V1
sVoverall4
p423
V3
sa(dp424
Vrt
p425
I84478
sVc_id
p426
I163
sVphase
p427
VFINAL-OVERALL
p428
sVbackground
p429
V1
sVoverall1
p430
V1
sVoverall3
p431
V1
sVoverall2
p432
V1
sVoverall4
p433
V1
sa(dp434
Vrt
p435
I92185
sVc_id
p436
I779
sVphase
p437
VFINAL-OVERALL
p438
sVbackground
p439
V1
sVoverall1
p440
V1
sVoverall3
p441
V1
sVoverall2
p442
V1
sVoverall4
p443
V1
sa(dp444
Vrt
p445
I31947
sVc_id
p446
I469
sVphase
p447
VFINAL-OVERALL
p448
sVbackground
p449
V1
sVoverall1
p450
V1
sVoverall3
p451
V1
sVoverall2
p452
V1
sVoverall4
p453
V2
sa(dp454
Vrt
p455
I28049
sVc_id
p456
I465
sVphase
p457
VFINAL-OVERALL
p458
sVbackground
p459
V0
sVoverall1
p460
V1
sVoverall3
p461
V1
sVoverall2
p462
V1
sVoverall4
p463
V1
sa(dp464
Vrt
p465
I30424
sVc_id
p466
I716
sVphase
p467
VFINAL-OVERALL
p468
sVbackground
p469
V1
sVoverall1
p470
V1
sVoverall3
p471
V1
sVoverall2
p472
V1
sVoverall4
p473
V5
sa(dp474
Vrt
p475
I26673
sVc_id
p476
I35
sVphase
p477
VFINAL-OVERALL
p478
sVbackground
p479
V1
sVoverall1
p480
V5
sVoverall3
p481
V1
sVoverall2
p482
V1
sVoverall4
p483
V1
sa(dp484
Vrt
p485
I19928
sVc_id
p486
I831
sVphase
p487
VFINAL-OVERALL
p488
sVbackground
p489
V1
sVoverall1
p490
V5
sVoverall3
p491
V1
sVoverall2
p492
V1
sVoverall4
p493
V1
sa(dp494
Vrt
p495
I19390
sVc_id
p496
I118
sVphase
p497
VFINAL-OVERALL
p498
sVbackground
p499
V1
sVoverall1
p500
V1
sVoverall3
p501
V1
sVoverall2
p502
V3
sVoverall4
p503
V4
sa(dp504
Vrt
p505
I19197
sVc_id
p506
I634
sVphase
p507
VFINAL-OVERALL
p508
sVbackground
p509
V1
sVoverall1
p510
V4
sVoverall3
p511
V1
sVoverall2
p512
V1
sVoverall4
p513
V1
sa(dp514
Vrt
p515
I18334
sVc_id
p516
I-3
sVphase
p517
VFINAL-OVERALL
p518
sVbackground
p519
V1
sVoverall1
p520
V5
sVoverall3
p521
V1
sVoverall2
p522
V5
sVoverall4
p523
V1
sa(dp524
Vrt
p525
I21476
sVc_id
p526
I477
sVphase
p527
VFINAL-OVERALL
p528
sVbackground
p529
V1
sVoverall1
p530
V5
sVoverall3
p531
V1
sVoverall2
p532
V4
sVoverall4
p533
V5
sa(dp534
Vrt
p535
I28684
sVc_id
p536
I464
sVphase
p537
VFINAL-OVERALL
p538
sVbackground
p539
V1
sVoverall1
p540
V1
sVoverall3
p541
V5
sVoverall2
p542
V1
sVoverall4
p543
V1
sa(dp544
Vrt
p545
I33701
sVc_id
p546
I513
sVphase
p547
VFINAL-OVERALL
p548
sVbackground
p549
V1
sVoverall1
p550
V1
sVoverall3
p551
V1
sVoverall2
p552
V1
sVoverall4
p553
V5
sa(dp554
Vrt
p555
I33142
sVc_id
p556
I380
sVphase
p557
VFINAL-OVERALL
p558
sVbackground
p559
V1
sVoverall1
p560
V1
sVoverall3
p561
V3
sVoverall2
p562
V1
sVoverall4
p563
V3
sa(dp564
Vrt
p565
I31602
sVc_id
p566
I178
sVphase
p567
VFINAL-OVERALL
p568
sVbackground
p569
V1
sVoverall1
p570
V3
sVoverall3
p571
V1
sVoverall2
p572
V1
sVoverall4
p573
V1
sa(dp574
Vrt
p575
I18815
sVc_id
p576
I319
sVphase
p577
VFINAL-OVERALL
p578
sVbackground
p579
V1
sVoverall1
p580
V1
sVoverall3
p581
V1
sVoverall2
p582
V1
sVoverall4
p583
V1
sa(dp584
Vrt
p585
I27133
sVc_id
p586
I83
sVphase
p587
VFINAL-OVERALL
p588
sVbackground
p589
V1
sVoverall1
p590
V1
sVoverall3
p591
V4
sVoverall2
p592
V5
sVoverall4
p593
V5
sasS'A1MZ9HW20WMEG6:31JLPPHS2UVIMD9V273X00L7LWPO3K'
p594
(lp595
(dp596
Vrt
p597
I154752
sVc_id
p598
I460
sVphase
p599
VFINAL-OVERALL
p600
sVbackground
p601
V1
sVoverall1
p602
V4
sVoverall3
p603
V2
sVoverall2
p604
V1
sVoverall4
p605
V1
sa(dp606
Vrt
p607
I80699
sVc_id
p608
I146
sVphase
p609
VFINAL-OVERALL
p610
sVbackground
p611
V1
sVoverall1
p612
V1
sVoverall3
p613
V2
sVoverall2
p614
V1
sVoverall4
p615
V3
sa(dp616
Vrt
p617
I114280
sVc_id
p618
I365
sVphase
p619
VFINAL-OVERALL
p620
sVbackground
p621
V1
sVoverall1
p622
V3
sVoverall3
p623
V1
sVoverall2
p624
V3
sVoverall4
p625
V4
sa(dp626
Vrt
p627
I116128
sVc_id
p628
I937
sVphase
p629
VFINAL-OVERALL
p630
sVbackground
p631
V1
sVoverall1
p632
V5
sVoverall3
p633
V2
sVoverall2
p634
V5
sVoverall4
p635
V1
sa(dp636
Vrt
p637
I48644
sVc_id
p638
I380
sVphase
p639
VFINAL-OVERALL
p640
sVbackground
p641
V1
sVoverall1
p642
V3
sVoverall3
p643
V5
sVoverall2
p644
V2
sVoverall4
p645
V3
sa(dp646
Vrt
p647
I66031
sVc_id
p648
I373
sVphase
p649
VFINAL-OVERALL
p650
sVbackground
p651
V1
sVoverall1
p652
V1
sVoverall3
p653
V2
sVoverall2
p654
V4
sVoverall4
p655
V5
sa(dp656
Vrt
p657
I35783
sVc_id
p658
I866
sVphase
p659
VFINAL-OVERALL
p660
sVbackground
p661
V1
sVoverall1
p662
V4
sVoverall3
p663
V1
sVoverall2
p664
V5
sVoverall4
p665
V1
sa(dp666
Vrt
p667
I58052
sVc_id
p668
I820
sVphase
p669
VFINAL-OVERALL
p670
sVbackground
p671
V0
sVoverall1
p672
V3
sVoverall3
p673
V3
sVoverall2
p674
V1
sVoverall4
p675
V2
sa(dp676
Vrt
p677
I99268
sVc_id
p678
I189
sVphase
p679
VFINAL-OVERALL
p680
sVbackground
p681
V1
sVoverall1
p682
V1
sVoverall3
p683
V1
sVoverall2
p684
V5
sVoverall4
p685
V1
sa(dp686
Vrt
p687
I41303
sVc_id
p688
I782
sVphase
p689
VFINAL-OVERALL
p690
sVbackground
p691
V1
sVoverall1
p692
V3
sVoverall3
p693
V2
sVoverall2
p694
V5
sVoverall4
p695
V5
sa(dp696
Vrt
p697
I73928
sVc_id
p698
I44
sVphase
p699
VFINAL-OVERALL
p700
sVbackground
p701
V0
sVoverall1
p702
V2
sVoverall3
p703
V1
sVoverall2
p704
V2
sVoverall4
p705
V5
sa(dp706
Vrt
p707
I129746
sVc_id
p708
I-3
sVphase
p709
VFINAL-OVERALL
p710
sVbackground
p711
V1
sVoverall1
p712
V5
sVoverall3
p713
V1
sVoverall2
p714
V5
sVoverall4
p715
V1
sa(dp716
Vrt
p717
I16887
sVc_id
p718
I635
sVphase
p719
VFINAL-OVERALL
p720
sVbackground
p721
V1
sVoverall1
p722
V1
sVoverall3
p723
V1
sVoverall2
p724
V5
sVoverall4
p725
V1
sa(dp726
Vrt
p727
I69270
sVc_id
p728
I549
sVphase
p729
VFINAL-OVERALL
p730
sVbackground
p731
V1
sVoverall1
p732
V1
sVoverall3
p733
V3
sVoverall2
p734
V2
sVoverall4
p735
V5
sa(dp736
Vrt
p737
I39395
sVc_id
p738
I623
sVphase
p739
VFINAL-OVERALL
p740
sVbackground
p741
V1
sVoverall1
p742
V2
sVoverall3
p743
V3
sVoverall2
p744
V2
sVoverall4
p745
V1
sa(dp746
Vrt
p747
I62511
sVc_id
p748
I443
sVphase
p749
VFINAL-OVERALL
p750
sVbackground
p751
V1
sVoverall1
p752
V5
sVoverall3
p753
V1
sVoverall2
p754
V1
sVoverall4
p755
V1
sa(dp756
Vrt
p757
I139767
sVc_id
p758
I406
sVphase
p759
VFINAL-OVERALL
p760
sVbackground
p761
V0
sVoverall1
p762
V1
sVoverall3
p763
V3
sVoverall2
p764
V2
sVoverall4
p765
V1
sa(dp766
Vrt
p767
I216848
sVc_id
p768
I886
sVphase
p769
VFINAL-OVERALL
p770
sVbackground
p771
V1
sVoverall1
p772
V5
sVoverall3
p773
V3
sVoverall2
p774
V2
sVoverall4
p775
V1
sa(dp776
Vrt
p777
I50893
sVc_id
p778
I402
sVphase
p779
VFINAL-OVERALL
p780
sVbackground
p781
V1
sVoverall1
p782
V1
sVoverall3
p783
V2
sVoverall2
p784
V5
sVoverall4
p785
V1
sa(dp786
Vrt
p787
I17982
sVc_id
p788
I702
sVphase
p789
VFINAL-OVERALL
p790
sVbackground
p791
V1
sVoverall1
p792
V1
sVoverall3
p793
V1
sVoverall2
p794
V5
sVoverall4
p795
V1
sa(dp796
Vrt
p797
I38129
sVc_id
p798
I41
sVphase
p799
VFINAL-OVERALL
p800
sVbackground
p801
V1
sVoverall1
p802
V4
sVoverall3
p803
V2
sVoverall2
p804
V1
sVoverall4
p805
V5
sa(dp806
Vrt
p807
I26432
sVc_id
p808
I585
sVphase
p809
VFINAL-OVERALL
p810
sVbackground
p811
V1
sVoverall1
p812
V2
sVoverall3
p813
V2
sVoverall2
p814
V3
sVoverall4
p815
V4
sa(dp816
Vrt
p817
I22477
sVc_id
p818
I439
sVphase
p819
VFINAL-OVERALL
p820
sVbackground
p821
V1
sVoverall1
p822
V5
sVoverall3
p823
V3
sVoverall2
p824
V4
sVoverall4
p825
V1
sa(dp826
Vrt
p827
I59860
sVc_id
p828
I660
sVphase
p829
VFINAL-OVERALL
p830
sVbackground
p831
V0
sVoverall1
p832
V2
sVoverall3
p833
V1
sVoverall2
p834
V4
sVoverall4
p835
V1
sa(dp836
Vrt
p837
I27092
sVc_id
p838
I684
sVphase
p839
VFINAL-OVERALL
p840
sVbackground
p841
V1
sVoverall1
p842
V5
sVoverall3
p843
V2
sVoverall2
p844
V5
sVoverall4
p845
V1
sa(dp846
Vrt
p847
I53089
sVc_id
p848
I793
sVphase
p849
VFINAL-OVERALL
p850
sVbackground
p851
V1
sVoverall1
p852
V4
sVoverall3
p853
V5
sVoverall2
p854
V4
sVoverall4
p855
V1
sa(dp856
Vrt
p857
I21711
sVc_id
p858
I925
sVphase
p859
VFINAL-OVERALL
p860
sVbackground
p861
V1
sVoverall1
p862
V3
sVoverall3
p863
V4
sVoverall2
p864
V1
sVoverall4
p865
V1
sa(dp866
Vrt
p867
I39335
sVc_id
p868
I596
sVphase
p869
VFINAL-OVERALL
p870
sVbackground
p871
V1
sVoverall1
p872
V1
sVoverall3
p873
V5
sVoverall2
p874
V4
sVoverall4
p875
V1
sa(dp876
Vrt
p877
I117948
sVc_id
p878
I885
sVphase
p879
VFINAL-OVERALL
p880
sVbackground
p881
V1
sVoverall1
p882
V1
sVoverall3
p883
V5
sVoverall2
p884
V1
sVoverall4
p885
V4
sa(dp886
Vrt
p887
I18879
sVc_id
p888
I961
sVphase
p889
VFINAL-OVERALL
p890
sVbackground
p891
V1
sVoverall1
p892
V3
sVoverall3
p893
V1
sVoverall2
p894
V4
sVoverall4
p895
V5
sa(dp896
Vrt
p897
I25614
sVc_id
p898
I645
sVphase
p899
VFINAL-OVERALL
p900
sVbackground
p901
V1
sVoverall1
p902
V1
sVoverall3
p903
V2
sVoverall2
p904
V4
sVoverall4
p905
V2
sa(dp906
Vrt
p907
I27661
sVc_id
p908
I744
sVphase
p909
VFINAL-OVERALL
p910
sVbackground
p911
V1
sVoverall1
p912
V2
sVoverall3
p913
V1
sVoverall2
p914
V3
sVoverall4
p915
V5
sa(dp916
Vrt
p917
I28048
sVc_id
p918
I523
sVphase
p919
VFINAL-OVERALL
p920
sVbackground
p921
V1
sVoverall1
p922
V5
sVoverall3
p923
V2
sVoverall2
p924
V1
sVoverall4
p925
V1
sa(dp926
Vrt
p927
I25380
sVc_id
p928
I769
sVphase
p929
VFINAL-OVERALL
p930
sVbackground
p931
V1
sVoverall1
p932
V3
sVoverall3
p933
V1
sVoverall2
p934
V3
sVoverall4
p935
V4
sa(dp936
Vrt
p937
I34223
sVc_id
p938
I968
sVphase
p939
VFINAL-OVERALL
p940
sVbackground
p941
V1
sVoverall1
p942
V4
sVoverall3
p943
V1
sVoverall2
p944
V5
sVoverall4
p945
V1
sa(dp946
Vrt
p947
I19771
sVc_id
p948
I947
sVphase
p949
VFINAL-OVERALL
p950
sVbackground
p951
V1
sVoverall1
p952
V1
sVoverall3
p953
V1
sVoverall2
p954
V1
sVoverall4
p955
V1
sa(dp956
Vrt
p957
I20601
sVc_id
p958
I574
sVphase
p959
VFINAL-OVERALL
p960
sVbackground
p961
V1
sVoverall1
p962
V5
sVoverall3
p963
V3
sVoverall2
p964
V1
sVoverall4
p965
V1
sa(dp966
Vrt
p967
I20386
sVc_id
p968
I212
sVphase
p969
VFINAL-OVERALL
p970
sVbackground
p971
V1
sVoverall1
p972
V2
sVoverall3
p973
V2
sVoverall2
p974
V5
sVoverall4
p975
V1
sa(dp976
Vrt
p977
I30798
sVc_id
p978
I571
sVphase
p979
VFINAL-OVERALL
p980
sVbackground
p981
V0
sVoverall1
p982
V4
sVoverall3
p983
V3
sVoverall2
p984
V1
sVoverall4
p985
V3
sa(dp986
Vrt
p987
I22348
sVc_id
p988
I177
sVphase
p989
VFINAL-OVERALL
p990
sVbackground
p991
V1
sVoverall1
p992
V3
sVoverall3
p993
V1
sVoverall2
p994
V5
sVoverall4
p995
V4
sa(dp996
Vrt
p997
I25080
sVc_id
p998
I568
sVphase
p999
VFINAL-OVERALL
p1000
sVbackground
p1001
V1
sVoverall1
p1002
V4
sVoverall3
p1003
V2
sVoverall2
p1004
V1
sVoverall4
p1005
V3
sa(dp1006
Vrt
p1007
I19087
sVc_id
p1008
I-4
sVphase
p1009
VFINAL-OVERALL
p1010
sVbackground
p1011
V1
sVoverall1
p1012
V5
sVoverall3
p1013
V1
sVoverall2
p1014
V5
sVoverall4
p1015
V1
sa(dp1016
Vrt
p1017
I25286
sVc_id
p1018
I-1
sVphase
p1019
VFINAL-OVERALL
p1020
sVbackground
p1021
V1
sVoverall1
p1022
V5
sVoverall3
p1023
V1
sVoverall2
p1024
V5
sVoverall4
p1025
V1
sa(dp1026
Vrt
p1027
I22280
sVc_id
p1028
I92
sVphase
p1029
VFINAL-OVERALL
p1030
sVbackground
p1031
V1
sVoverall1
p1032
V2
sVoverall3
p1033
V4
sVoverall2
p1034
V2
sVoverall4
p1035
V1
sa(dp1036
Vrt
p1037
I26638
sVc_id
p1038
I449
sVphase
p1039
VFINAL-OVERALL
p1040
sVbackground
p1041
V1
sVoverall1
p1042
V2
sVoverall3
p1043
V1
sVoverall2
p1044
V2
sVoverall4
p1045
V3
sa(dp1046
Vrt
p1047
I13441
sVc_id
p1048
I81
sVphase
p1049
VFINAL-OVERALL
p1050
sVbackground
p1051
V1
sVoverall1
p1052
V1
sVoverall3
p1053
V2
sVoverall2
p1054
V4
sVoverall4
p1055
V3
sa(dp1056
Vrt
p1057
I25617
sVc_id
p1058
I259
sVphase
p1059
VFINAL-OVERALL
p1060
sVbackground
p1061
V1
sVoverall1
p1062
V4
sVoverall3
p1063
V2
sVoverall2
p1064
V1
sVoverall4
p1065
V5
sa(dp1066
Vrt
p1067
I13590
sVc_id
p1068
I976
sVphase
p1069
VFINAL-OVERALL
p1070
sVbackground
p1071
V1
sVoverall1
p1072
V5
sVoverall3
p1073
V5
sVoverall2
p1074
V4
sVoverall4
p1075
V1
sa(dp1076
Vrt
p1077
I23170
sVc_id
p1078
I967
sVphase
p1079
VFINAL-OVERALL
p1080
sVbackground
p1081
V1
sVoverall1
p1082
V5
sVoverall3
p1083
V3
sVoverall2
p1084
V1
sVoverall4
p1085
V3
sa(dp1086
Vrt
p1087
I23438
sVc_id
p1088
I38
sVphase
p1089
VFINAL-OVERALL
p1090
sVbackground
p1091
V0
sVoverall1
p1092
V3
sVoverall3
p1093
V3
sVoverall2
p1094
V4
sVoverall4
p1095
V2
sa(dp1096
Vrt
p1097
I23884
sVc_id
p1098
I878
sVphase
p1099
VFINAL-OVERALL
p1100
sVbackground
p1101
V1
sVoverall1
p1102
V1
sVoverall3
p1103
V4
sVoverall2
p1104
V1
sVoverall4
p1105
V3
sa(dp1106
Vrt
p1107
I23908
sVc_id
p1108
I328
sVphase
p1109
VFINAL-OVERALL
p1110
sVbackground
p1111
V1
sVoverall1
p1112
V5
sVoverall3
p1113
V1
sVoverall2
p1114
V2
sVoverall4
p1115
V2
sa(dp1116
Vrt
p1117
I16876
sVc_id
p1118
I444
sVphase
p1119
VFINAL-OVERALL
p1120
sVbackground
p1121
V1
sVoverall1
p1122
V1
sVoverall3
p1123
V1
sVoverall2
p1124
V4
sVoverall4
p1125
V3
sa(dp1126
Vrt
p1127
I11823
sVc_id
p1128
I27
sVphase
p1129
VFINAL-OVERALL
p1130
sVbackground
p1131
V1
sVoverall1
p1132
V1
sVoverall3
p1133
V1
sVoverall2
p1134
V2
sVoverall4
p1135
V1
sa(dp1136
Vrt
p1137
I12663
sVc_id
p1138
I913
sVphase
p1139
VFINAL-OVERALL
p1140
sVbackground
p1141
V1
sVoverall1
p1142
V1
sVoverall3
p1143
V4
sVoverall2
p1144
V1
sVoverall4
p1145
V5
sa(dp1146
Vrt
p1147
I18452
sVc_id
p1148
I734
sVphase
p1149
VFINAL-OVERALL
p1150
sVbackground
p1151
V1
sVoverall1
p1152
V5
sVoverall3
p1153
V5
sVoverall2
p1154
V3
sVoverall4
p1155
V3
sa(dp1156
Vrt
p1157
I13745
sVc_id
p1158
I845
sVphase
p1159
VFINAL-OVERALL
p1160
sVbackground
p1161
V1
sVoverall1
p1162
V2
sVoverall3
p1163
V1
sVoverall2
p1164
V1
sVoverall4
p1165
V4
sa(dp1166
Vrt
p1167
I26083
sVc_id
p1168
I633
sVphase
p1169
VFINAL-OVERALL
p1170
sVbackground
p1171
V1
sVoverall1
p1172
V4
sVoverall3
p1173
V3
sVoverall2
p1174
V3
sVoverall4
p1175
V5
sa(dp1176
Vrt
p1177
I11094
sVc_id
p1178
I-2
sVphase
p1179
VFINAL-OVERALL
p1180
sVbackground
p1181
V1
sVoverall1
p1182
V5
sVoverall3
p1183
V1
sVoverall2
p1184
V5
sVoverall4
p1185
V1
sasS'A1NKBXOTZAI1YK:3SUWZRL0MYEV75JORVYZ2R3DRLCE63'
p1186
(lp1187
(dp1188
Vrt
p1189
I38682
sVc_id
p1190
I142
sVphase
p1191
VFINAL-OVERALL
p1192
sVbackground
p1193
V1
sVoverall1
p1194
V1
sVoverall3
p1195
V1
sVoverall2
p1196
V5
sVoverall4
p1197
V1
sa(dp1198
Vrt
p1199
I23629
sVc_id
p1200
I833
sVphase
p1201
VFINAL-OVERALL
p1202
sVbackground
p1203
V1
sVoverall1
p1204
V1
sVoverall3
p1205
V2
sVoverall2
p1206
V5
sVoverall4
p1207
V1
sa(dp1208
Vrt
p1209
I29669
sVc_id
p1210
I835
sVphase
p1211
VFINAL-OVERALL
p1212
sVbackground
p1213
V1
sVoverall1
p1214
V1
sVoverall3
p1215
V1
sVoverall2
p1216
V1
sVoverall4
p1217
V3
sa(dp1218
Vrt
p1219
I22387
sVc_id
p1220
I346
sVphase
p1221
VFINAL-OVERALL
p1222
sVbackground
p1223
V1
sVoverall1
p1224
V5
sVoverall3
p1225
V3
sVoverall2
p1226
V1
sVoverall4
p1227
V3
sa(dp1228
Vrt
p1229
I29464
sVc_id
p1230
I753
sVphase
p1231
VFINAL-OVERALL
p1232
sVbackground
p1233
V1
sVoverall1
p1234
V5
sVoverall3
p1235
V5
sVoverall2
p1236
V1
sVoverall4
p1237
V1
sa(dp1238
Vrt
p1239
I11922
sVc_id
p1240
I-2
sVphase
p1241
VFINAL-OVERALL
p1242
sVbackground
p1243
V1
sVoverall1
p1244
V5
sVoverall3
p1245
V1
sVoverall2
p1246
V5
sVoverall4
p1247
V1
sa(dp1248
Vrt
p1249
I19124
sVc_id
p1250
I501
sVphase
p1251
VFINAL-OVERALL
p1252
sVbackground
p1253
V1
sVoverall1
p1254
V5
sVoverall3
p1255
V5
sVoverall2
p1256
V1
sVoverall4
p1257
V1
sa(dp1258
Vrt
p1259
I22369
sVc_id
p1260
I492
sVphase
p1261
VFINAL-OVERALL
p1262
sVbackground
p1263
V1
sVoverall1
p1264
V5
sVoverall3
p1265
V1
sVoverall2
p1266
V1
sVoverall4
p1267
V1
sa(dp1268
Vrt
p1269
I17707
sVc_id
p1270
I305
sVphase
p1271
VFINAL-OVERALL
p1272
sVbackground
p1273
V1
sVoverall1
p1274
V2
sVoverall3
p1275
V3
sVoverall2
p1276
V2
sVoverall4
p1277
V4
sa(dp1278
Vrt
p1279
I23394
sVc_id
p1280
I673
sVphase
p1281
VFINAL-OVERALL
p1282
sVbackground
p1283
V1
sVoverall1
p1284
V1
sVoverall3
p1285
V1
sVoverall2
p1286
V5
sVoverall4
p1287
V1
sa(dp1288
Vrt
p1289
I28012
sVc_id
p1290
I853
sVphase
p1291
VFINAL-OVERALL
p1292
sVbackground
p1293
V1
sVoverall1
p1294
V1
sVoverall3
p1295
V1
sVoverall2
p1296
V3
sVoverall4
p1297
V1
sa(dp1298
Vrt
p1299
I18913
sVc_id
p1300
I468
sVphase
p1301
VFINAL-OVERALL
p1302
sVbackground
p1303
V1
sVoverall1
p1304
V1
sVoverall3
p1305
V4
sVoverall2
p1306
V2
sVoverall4
p1307
V1
sa(dp1308
Vrt
p1309
I13959
sVc_id
p1310
I560
sVphase
p1311
VFINAL-OVERALL
p1312
sVbackground
p1313
V1
sVoverall1
p1314
V5
sVoverall3
p1315
V1
sVoverall2
p1316
V2
sVoverall4
p1317
V1
sa(dp1318
Vrt
p1319
I23701
sVc_id
p1320
I379
sVphase
p1321
VFINAL-OVERALL
p1322
sVbackground
p1323
V1
sVoverall1
p1324
V1
sVoverall3
p1325
V4
sVoverall2
p1326
V1
sVoverall4
p1327
V1
sa(dp1328
Vrt
p1329
I17595
sVc_id
p1330
I873
sVphase
p1331
VFINAL-OVERALL
p1332
sVbackground
p1333
V1
sVoverall1
p1334
V1
sVoverall3
p1335
V5
sVoverall2
p1336
V1
sVoverall4
p1337
V1
sa(dp1338
Vrt
p1339
I16835
sVc_id
p1340
I11
sVphase
p1341
VFINAL-OVERALL
p1342
sVbackground
p1343
V1
sVoverall1
p1344
V5
sVoverall3
p1345
V1
sVoverall2
p1346
V1
sVoverall4
p1347
V3
sa(dp1348
Vrt
p1349
I20824
sVc_id
p1350
I403
sVphase
p1351
VFINAL-OVERALL
p1352
sVbackground
p1353
V0
sVoverall1
p1354
V1
sVoverall3
p1355
V5
sVoverall2
p1356
V1
sVoverall4
p1357
V1
sa(dp1358
Vrt
p1359
I8779
sVc_id
p1360
I297
sVphase
p1361
VFINAL-OVERALL
p1362
sVbackground
p1363
V1
sVoverall1
p1364
V1
sVoverall3
p1365
V1
sVoverall2
p1366
V1
sVoverall4
p1367
V1
sa(dp1368
Vrt
p1369
I13913
sVc_id
p1370
I590
sVphase
p1371
VFINAL-OVERALL
p1372
sVbackground
p1373
V1
sVoverall1
p1374
V5
sVoverall3
p1375
V1
sVoverall2
p1376
V1
sVoverall4
p1377
V2
sa(dp1378
Vrt
p1379
I16984
sVc_id
p1380
I652
sVphase
p1381
VFINAL-OVERALL
p1382
sVbackground
p1383
V1
sVoverall1
p1384
V1
sVoverall3
p1385
V1
sVoverall2
p1386
V5
sVoverall4
p1387
V1
sa(dp1388
Vrt
p1389
I11005
sVc_id
p1390
I441
sVphase
p1391
VFINAL-OVERALL
p1392
sVbackground
p1393
V0
sVoverall1
p1394
V5
sVoverall3
p1395
V2
sVoverall2
p1396
V5
sVoverall4
p1397
V1
sa(dp1398
Vrt
p1399
I13796
sVc_id
p1400
I548
sVphase
p1401
VFINAL-OVERALL
p1402
sVbackground
p1403
V1
sVoverall1
p1404
V2
sVoverall3
p1405
V2
sVoverall2
p1406
V1
sVoverall4
p1407
V3
sa(dp1408
Vrt
p1409
I18146
sVc_id
p1410
I976
sVphase
p1411
VFINAL-OVERALL
p1412
sVbackground
p1413
V1
sVoverall1
p1414
V5
sVoverall3
p1415
V5
sVoverall2
p1416
V1
sVoverall4
p1417
V1
sa(dp1418
Vrt
p1419
I18121
sVc_id
p1420
I432
sVphase
p1421
VFINAL-OVERALL
p1422
sVbackground
p1423
V1
sVoverall1
p1424
V5
sVoverall3
p1425
V1
sVoverall2
p1426
V1
sVoverall4
p1427
V1
sa(dp1428
Vrt
p1429
I19295
sVc_id
p1430
I569
sVphase
p1431
VFINAL-OVERALL
p1432
sVbackground
p1433
V1
sVoverall1
p1434
V3
sVoverall3
p1435
V5
sVoverall2
p1436
V1
sVoverall4
p1437
V5
sa(dp1438
Vrt
p1439
I25605
sVc_id
p1440
I259
sVphase
p1441
VFINAL-OVERALL
p1442
sVbackground
p1443
V1
sVoverall1
p1444
V1
sVoverall3
p1445
V1
sVoverall2
p1446
V1
sVoverall4
p1447
V5
sa(dp1448
Vrt
p1449
I26100
sVc_id
p1450
I357
sVphase
p1451
VFINAL-OVERALL
p1452
sVbackground
p1453
V1
sVoverall1
p1454
V1
sVoverall3
p1455
V1
sVoverall2
p1456
V4
sVoverall4
p1457
V4
sa(dp1458
Vrt
p1459
I14648
sVc_id
p1460
I872
sVphase
p1461
VFINAL-OVERALL
p1462
sVbackground
p1463
V1
sVoverall1
p1464
V1
sVoverall3
p1465
V3
sVoverall2
p1466
V1
sVoverall4
p1467
V1
sa(dp1468
Vrt
p1469
I17395
sVc_id
p1470
I783
sVphase
p1471
VFINAL-OVERALL
p1472
sVbackground
p1473
V1
sVoverall1
p1474
V3
sVoverall3
p1475
V1
sVoverall2
p1476
V1
sVoverall4
p1477
V2
sa(dp1478
Vrt
p1479
I24515
sVc_id
p1480
I606
sVphase
p1481
VFINAL-OVERALL
p1482
sVbackground
p1483
V1
sVoverall1
p1484
V1
sVoverall3
p1485
V5
sVoverall2
p1486
V3
sVoverall4
p1487
V1
sa(dp1488
Vrt
p1489
I14788
sVc_id
p1490
I715
sVphase
p1491
VFINAL-OVERALL
p1492
sVbackground
p1493
V1
sVoverall1
p1494
V1
sVoverall3
p1495
V1
sVoverall2
p1496
V5
sVoverall4
p1497
V5
sa(dp1498
Vrt
p1499
I16378
sVc_id
p1500
I580
sVphase
p1501
VFINAL-OVERALL
p1502
sVbackground
p1503
V1
sVoverall1
p1504
V5
sVoverall3
p1505
V1
sVoverall2
p1506
V1
sVoverall4
p1507
V1
sa(dp1508
Vrt
p1509
I14326
sVc_id
p1510
I143
sVphase
p1511
VFINAL-OVERALL
p1512
sVbackground
p1513
V1
sVoverall1
p1514
V1
sVoverall3
p1515
V5
sVoverall2
p1516
V2
sVoverall4
p1517
V2
sa(dp1518
Vrt
p1519
I13813
sVc_id
p1520
I312
sVphase
p1521
VFINAL-OVERALL
p1522
sVbackground
p1523
V1
sVoverall1
p1524
V1
sVoverall3
p1525
V5
sVoverall2
p1526
V4
sVoverall4
p1527
V1
sa(dp1528
Vrt
p1529
I10904
sVc_id
p1530
I-3
sVphase
p1531
VFINAL-OVERALL
p1532
sVbackground
p1533
V1
sVoverall1
p1534
V5
sVoverall3
p1535
V1
sVoverall2
p1536
V5
sVoverall4
p1537
V1
sa(dp1538
Vrt
p1539
I26441
sVc_id
p1540
I841
sVphase
p1541
VFINAL-OVERALL
p1542
sVbackground
p1543
V1
sVoverall1
p1544
V4
sVoverall3
p1545
V5
sVoverall2
p1546
V1
sVoverall4
p1547
V1
sa(dp1548
Vrt
p1549
I16104
sVc_id
p1550
I268
sVphase
p1551
VFINAL-OVERALL
p1552
sVbackground
p1553
V1
sVoverall1
p1554
V1
sVoverall3
p1555
V1
sVoverall2
p1556
V5
sVoverall4
p1557
V1
sa(dp1558
Vrt
p1559
I20706
sVc_id
p1560
I980
sVphase
p1561
VFINAL-OVERALL
p1562
sVbackground
p1563
V1
sVoverall1
p1564
V2
sVoverall3
p1565
V1
sVoverall2
p1566
V3
sVoverall4
p1567
V1
sa(dp1568
Vrt
p1569
I19620
sVc_id
p1570
I215
sVphase
p1571
VFINAL-OVERALL
p1572
sVbackground
p1573
V1
sVoverall1
p1574
V1
sVoverall3
p1575
V4
sVoverall2
p1576
V1
sVoverall4
p1577
V2
sa(dp1578
Vrt
p1579
I10659
sVc_id
p1580
I-4
sVphase
p1581
VFINAL-OVERALL
p1582
sVbackground
p1583
V1
sVoverall1
p1584
V5
sVoverall3
p1585
V1
sVoverall2
p1586
V5
sVoverall4
p1587
V1
sa(dp1588
Vrt
p1589
I14782
sVc_id
p1590
I307
sVphase
p1591
VFINAL-OVERALL
p1592
sVbackground
p1593
V1
sVoverall1
p1594
V5
sVoverall3
p1595
V1
sVoverall2
p1596
V3
sVoverall4
p1597
V5
sa(dp1598
Vrt
p1599
I21483
sVc_id
p1600
I675
sVphase
p1601
VFINAL-OVERALL
p1602
sVbackground
p1603
V1
sVoverall1
p1604
V4
sVoverall3
p1605
V1
sVoverall2
p1606
V1
sVoverall4
p1607
V1
sa(dp1608
Vrt
p1609
I10646
sVc_id
p1610
I266
sVphase
p1611
VFINAL-OVERALL
p1612
sVbackground
p1613
V1
sVoverall1
p1614
V5
sVoverall3
p1615
V5
sVoverall2
p1616
V5
sVoverall4
p1617
V3
sa(dp1618
Vrt
p1619
I16104
sVc_id
p1620
I331
sVphase
p1621
VFINAL-OVERALL
p1622
sVbackground
p1623
V1
sVoverall1
p1624
V1
sVoverall3
p1625
V1
sVoverall2
p1626
V5
sVoverall4
p1627
V1
sa(dp1628
Vrt
p1629
I14720
sVc_id
p1630
I67
sVphase
p1631
VFINAL-OVERALL
p1632
sVbackground
p1633
V1
sVoverall1
p1634
V1
sVoverall3
p1635
V1
sVoverall2
p1636
V4
sVoverall4
p1637
V4
sa(dp1638
Vrt
p1639
I13029
sVc_id
p1640
I490
sVphase
p1641
VFINAL-OVERALL
p1642
sVbackground
p1643
V1
sVoverall1
p1644
V1
sVoverall3
p1645
V2
sVoverall2
p1646
V1
sVoverall4
p1647
V5
sa(dp1648
Vrt
p1649
I12223
sVc_id
p1650
I-1
sVphase
p1651
VFINAL-OVERALL
p1652
sVbackground
p1653
V1
sVoverall1
p1654
V5
sVoverall3
p1655
V1
sVoverall2
p1656
V5
sVoverall4
p1657
V1
sa(dp1658
Vrt
p1659
I18764
sVc_id
p1660
I819
sVphase
p1661
VFINAL-OVERALL
p1662
sVbackground
p1663
V0
sVoverall1
p1664
V1
sVoverall3
p1665
V1
sVoverall2
p1666
V4
sVoverall4
p1667
V1
sa(dp1668
Vrt
p1669
I20428
sVc_id
p1670
I233
sVphase
p1671
VFINAL-OVERALL
p1672
sVbackground
p1673
V0
sVoverall1
p1674
V5
sVoverall3
p1675
V3
sVoverall2
p1676
V3
sVoverall4
p1677
V1
sa(dp1678
Vrt
p1679
I14001
sVc_id
p1680
I212
sVphase
p1681
VFINAL-OVERALL
p1682
sVbackground
p1683
V1
sVoverall1
p1684
V2
sVoverall3
p1685
V1
sVoverall2
p1686
V5
sVoverall4
p1687
V1
sa(dp1688
Vrt
p1689
I16061
sVc_id
p1690
I876
sVphase
p1691
VFINAL-OVERALL
p1692
sVbackground
p1693
V0
sVoverall1
p1694
V1
sVoverall3
p1695
V4
sVoverall2
p1696
V4
sVoverall4
p1697
V3
sa(dp1698
Vrt
p1699
I21087
sVc_id
p1700
I546
sVphase
p1701
VFINAL-OVERALL
p1702
sVbackground
p1703
V1
sVoverall1
p1704
V2
sVoverall3
p1705
V2
sVoverall2
p1706
V5
sVoverall4
p1707
V1
sa(dp1708
Vrt
p1709
I12743
sVc_id
p1710
I574
sVphase
p1711
VFINAL-OVERALL
p1712
sVbackground
p1713
V1
sVoverall1
p1714
V5
sVoverall3
p1715
V1
sVoverall2
p1716
V1
sVoverall4
p1717
V1
sa(dp1718
Vrt
p1719
I16383
sVc_id
p1720
I341
sVphase
p1721
VFINAL-OVERALL
p1722
sVbackground
p1723
V1
sVoverall1
p1724
V1
sVoverall3
p1725
V1
sVoverall2
p1726
V1
sVoverall4
p1727
V5
sa(dp1728
Vrt
p1729
I14485
sVc_id
p1730
I857
sVphase
p1731
VFINAL-OVERALL
p1732
sVbackground
p1733
V1
sVoverall1
p1734
V5
sVoverall3
p1735
V3
sVoverall2
p1736
V1
sVoverall4
p1737
V1
sa(dp1738
Vrt
p1739
I16247
sVc_id
p1740
I173
sVphase
p1741
VFINAL-OVERALL
p1742
sVbackground
p1743
V1
sVoverall1
p1744
V1
sVoverall3
p1745
V5
sVoverall2
p1746
V1
sVoverall4
p1747
V1
sa(dp1748
Vrt
p1749
I13740
sVc_id
p1750
I979
sVphase
p1751
VFINAL-OVERALL
p1752
sVbackground
p1753
V1
sVoverall1
p1754
V2
sVoverall3
p1755
V5
sVoverall2
p1756
V1
sVoverall4
p1757
V1
sa(dp1758
Vrt
p1759
I13904
sVc_id
p1760
I912
sVphase
p1761
VFINAL-OVERALL
p1762
sVbackground
p1763
V1
sVoverall1
p1764
V5
sVoverall3
p1765
V4
sVoverall2
p1766
V1
sVoverall4
p1767
V1
sa(dp1768
Vrt
p1769
I23986
sVc_id
p1770
I380
sVphase
p1771
VFINAL-OVERALL
p1772
sVbackground
p1773
V1
sVoverall1
p1774
V1
sVoverall3
p1775
V4
sVoverall2
p1776
V1
sVoverall4
p1777
V1
sasS'A19WXS1CLVLEEX:3LO69W1SU3EBA4IMKUUPRD6MUW5LGO'
p1778
(lp1779
(dp1780
Vrt
p1781
I58306
sVc_id
p1782
I792
sVphase
p1783
VFINAL-OVERALL
p1784
sVbackground
p1785
V1
sVoverall1
p1786
V5
sVoverall3
p1787
V3
sVoverall2
p1788
V1
sVoverall4
p1789
V1
sa(dp1790
Vrt
p1791
I52672
sVc_id
p1792
I181
sVphase
p1793
VFINAL-OVERALL
p1794
sVbackground
p1795
V1
sVoverall1
p1796
V5
sVoverall3
p1797
V2
sVoverall2
p1798
V1
sVoverall4
p1799
V3
sa(dp1800
Vrt
p1801
I28301
sVc_id
p1802
I619
sVphase
p1803
VFINAL-OVERALL
p1804
sVbackground
p1805
V1
sVoverall1
p1806
V1
sVoverall3
p1807
V4
sVoverall2
p1808
V5
sVoverall4
p1809
V2
sa(dp1810
Vrt
p1811
I35417
sVc_id
p1812
I649
sVphase
p1813
VFINAL-OVERALL
p1814
sVbackground
p1815
V1
sVoverall1
p1816
V2
sVoverall3
p1817
V4
sVoverall2
p1818
V4
sVoverall4
p1819
V1
sa(dp1820
Vrt
p1821
I43386
sVc_id
p1822
I540
sVphase
p1823
VFINAL-OVERALL
p1824
sVbackground
p1825
V1
sVoverall1
p1826
V3
sVoverall3
p1827
V4
sVoverall2
p1828
V1
sVoverall4
p1829
V5
sa(dp1830
Vrt
p1831
I38238
sVc_id
p1832
I931
sVphase
p1833
VFINAL-OVERALL
p1834
sVbackground
p1835
V1
sVoverall1
p1836
V5
sVoverall3
p1837
V5
sVoverall2
p1838
V1
sVoverall4
p1839
V1
sa(dp1840
Vrt
p1841
I34106
sVc_id
p1842
I842
sVphase
p1843
VFINAL-OVERALL
p1844
sVbackground
p1845
V1
sVoverall1
p1846
V1
sVoverall3
p1847
V4
sVoverall2
p1848
V5
sVoverall4
p1849
V1
sa(dp1850
Vrt
p1851
I19308
sVc_id
p1852
I-1
sVphase
p1853
VFINAL-OVERALL
p1854
sVbackground
p1855
V0
sVoverall1
p1856
V5
sVoverall3
p1857
V2
sVoverall2
p1858
V5
sVoverall4
p1859
V1
sa(dp1860
Vrt
p1861
I41366
sVc_id
p1862
I440
sVphase
p1863
VFINAL-OVERALL
p1864
sVbackground
p1865
V1
sVoverall1
p1866
V4
sVoverall3
p1867
V4
sVoverall2
p1868
V1
sVoverall4
p1869
V2
sa(dp1870
Vrt
p1871
I30343
sVc_id
p1872
I887
sVphase
p1873
VFINAL-OVERALL
p1874
sVbackground
p1875
V0
sVoverall1
p1876
V4
sVoverall3
p1877
V1
sVoverall2
p1878
V2
sVoverall4
p1879
V2
sa(dp1880
Vrt
p1881
I41391
sVc_id
p1882
I849
sVphase
p1883
VFINAL-OVERALL
p1884
sVbackground
p1885
V1
sVoverall1
p1886
V4
sVoverall3
p1887
V3
sVoverall2
p1888
V4
sVoverall4
p1889
V1
sa(dp1890
Vrt
p1891
I31984
sVc_id
p1892
I292
sVphase
p1893
VFINAL-OVERALL
p1894
sVbackground
p1895
V0
sVoverall1
p1896
V1
sVoverall3
p1897
V4
sVoverall2
p1898
V3
sVoverall4
p1899
V5
sa(dp1900
Vrt
p1901
I39594
sVc_id
p1902
I562
sVphase
p1903
VFINAL-OVERALL
p1904
sVbackground
p1905
V0
sVoverall1
p1906
V1
sVoverall3
p1907
V2
sVoverall2
p1908
V4
sVoverall4
p1909
V4
sa(dp1910
Vrt
p1911
I24970
sVc_id
p1912
I276
sVphase
p1913
VFINAL-OVERALL
p1914
sVbackground
p1915
V0
sVoverall1
p1916
V2
sVoverall3
p1917
V1
sVoverall2
p1918
V4
sVoverall4
p1919
V1
sa(dp1920
Vrt
p1921
I35856
sVc_id
p1922
I930
sVphase
p1923
VFINAL-OVERALL
p1924
sVbackground
p1925
V0
sVoverall1
p1926
V4
sVoverall3
p1927
V1
sVoverall2
p1928
V1
sVoverall4
p1929
V2
sa(dp1930
Vrt
p1931
I25131
sVc_id
p1932
I475
sVphase
p1933
VFINAL-OVERALL
p1934
sVbackground
p1935
V1
sVoverall1
p1936
V1
sVoverall3
p1937
V5
sVoverall2
p1938
V5
sVoverall4
p1939
V3
sa(dp1940
Vrt
p1941
I33905
sVc_id
p1942
I308
sVphase
p1943
VFINAL-OVERALL
p1944
sVbackground
p1945
V1
sVoverall1
p1946
V2
sVoverall3
p1947
V3
sVoverall2
p1948
V5
sVoverall4
p1949
V5
sa(dp1950
Vrt
p1951
I19422
sVc_id
p1952
I190
sVphase
p1953
VFINAL-OVERALL
p1954
sVbackground
p1955
V1
sVoverall1
p1956
V5
sVoverall3
p1957
V1
sVoverall2
p1958
V1
sVoverall4
p1959
V5
sa(dp1960
Vrt
p1961
I29332
sVc_id
p1962
I350
sVphase
p1963
VFINAL-OVERALL
p1964
sVbackground
p1965
V1
sVoverall1
p1966
V5
sVoverall3
p1967
V1
sVoverall2
p1968
V5
sVoverall4
p1969
V4
sa(dp1970
Vrt
p1971
I20079
sVc_id
p1972
I909
sVphase
p1973
VFINAL-OVERALL
p1974
sVbackground
p1975
V1
sVoverall1
p1976
V5
sVoverall3
p1977
V3
sVoverall2
p1978
V4
sVoverall4
p1979
V1
sa(dp1980
Vrt
p1981
I39860
sVc_id
p1982
I82
sVphase
p1983
VFINAL-OVERALL
p1984
sVbackground
p1985
V0
sVoverall1
p1986
V1
sVoverall3
p1987
V5
sVoverall2
p1988
V1
sVoverall4
p1989
V1
sa(dp1990
Vrt
p1991
I37470
sVc_id
p1992
I572
sVphase
p1993
VFINAL-OVERALL
p1994
sVbackground
p1995
V0
sVoverall1
p1996
V1
sVoverall3
p1997
V1
sVoverall2
p1998
V1
sVoverall4
p1999
V4
sa(dp2000
Vrt
p2001
I30182
sVc_id
p2002
I756
sVphase
p2003
VFINAL-OVERALL
p2004
sVbackground
p2005
V1
sVoverall1
p2006
V4
sVoverall3
p2007
V1
sVoverall2
p2008
V4
sVoverall4
p2009
V5
sa(dp2010
Vrt
p2011
I28520
sVc_id
p2012
I380
sVphase
p2013
VFINAL-OVERALL
p2014
sVbackground
p2015
V0
sVoverall1
p2016
V2
sVoverall3
p2017
V5
sVoverall2
p2018
V1
sVoverall4
p2019
V1
sa(dp2020
Vrt
p2021
I29290
sVc_id
p2022
I574
sVphase
p2023
VFINAL-OVERALL
p2024
sVbackground
p2025
V0
sVoverall1
p2026
V4
sVoverall3
p2027
V2
sVoverall2
p2028
V1
sVoverall4
p2029
V1
sa(dp2030
Vrt
p2031
I14940
sVc_id
p2032
I-2
sVphase
p2033
VFINAL-OVERALL
p2034
sVbackground
p2035
V1
sVoverall1
p2036
V5
sVoverall3
p2037
V1
sVoverall2
p2038
V5
sVoverall4
p2039
V1
sa(dp2040
Vrt
p2041
I24352
sVc_id
p2042
I79
sVphase
p2043
VFINAL-OVERALL
p2044
sVbackground
p2045
V0
sVoverall1
p2046
V1
sVoverall3
p2047
V4
sVoverall2
p2048
V5
sVoverall4
p2049
V1
sa(dp2050
Vrt
p2051
I19184
sVc_id
p2052
I579
sVphase
p2053
VFINAL-OVERALL
p2054
sVbackground
p2055
V1
sVoverall1
p2056
V5
sVoverall3
p2057
V1
sVoverall2
p2058
V5
sVoverall4
p2059
V1
sa(dp2060
Vrt
p2061
I27384
sVc_id
p2062
I119
sVphase
p2063
VFINAL-OVERALL
p2064
sVbackground
p2065
V0
sVoverall1
p2066
V2
sVoverall3
p2067
V1
sVoverall2
p2068
V1
sVoverall4
p2069
V4
sa(dp2070
Vrt
p2071
I108076
sVc_id
p2072
I186
sVphase
p2073
VFINAL-OVERALL
p2074
sVbackground
p2075
V0
sVoverall1
p2076
V3
sVoverall3
p2077
V4
sVoverall2
p2078
V2
sVoverall4
p2079
V1
sa(dp2080
Vrt
p2081
I16474
sVc_id
p2082
I-4
sVphase
p2083
VFINAL-OVERALL
p2084
sVbackground
p2085
V1
sVoverall1
p2086
V5
sVoverall3
p2087
V1
sVoverall2
p2088
V5
sVoverall4
p2089
V2
sa(dp2090
Vrt
p2091
I22001
sVc_id
p2092
I587
sVphase
p2093
VFINAL-OVERALL
p2094
sVbackground
p2095
V1
sVoverall1
p2096
V1
sVoverall3
p2097
V5
sVoverall2
p2098
V2
sVoverall4
p2099
V2
sa(dp2100
Vrt
p2101
I40512
sVc_id
p2102
I259
sVphase
p2103
VFINAL-OVERALL
p2104
sVbackground
p2105
V1
sVoverall1
p2106
V2
sVoverall3
p2107
V4
sVoverall2
p2108
V1
sVoverall4
p2109
V5
sa(dp2110
Vrt
p2111
I23772
sVc_id
p2112
I242
sVphase
p2113
VFINAL-OVERALL
p2114
sVbackground
p2115
V0
sVoverall1
p2116
V5
sVoverall3
p2117
V2
sVoverall2
p2118
V1
sVoverall4
p2119
V1
sa(dp2120
Vrt
p2121
I20826
sVc_id
p2122
I577
sVphase
p2123
VFINAL-OVERALL
p2124
sVbackground
p2125
V1
sVoverall1
p2126
V4
sVoverall3
p2127
V4
sVoverall2
p2128
V3
sVoverall4
p2129
V2
sa(dp2130
Vrt
p2131
I53324
sVc_id
p2132
I47
sVphase
p2133
VFINAL-OVERALL
p2134
sVbackground
p2135
V0
sVoverall1
p2136
V2
sVoverall3
p2137
V1
sVoverall2
p2138
V4
sVoverall4
p2139
V1
sa(dp2140
Vrt
p2141
I36712
sVc_id
p2142
I777
sVphase
p2143
VFINAL-OVERALL
p2144
sVbackground
p2145
V0
sVoverall1
p2146
V4
sVoverall3
p2147
V1
sVoverall2
p2148
V1
sVoverall4
p2149
V2
sa(dp2150
Vrt
p2151
I36721
sVc_id
p2152
I148
sVphase
p2153
VFINAL-OVERALL
p2154
sVbackground
p2155
V1
sVoverall1
p2156
V1
sVoverall3
p2157
V3
sVoverall2
p2158
V1
sVoverall4
p2159
V5
sa(dp2160
Vrt
p2161
I14655
sVc_id
p2162
I908
sVphase
p2163
VFINAL-OVERALL
p2164
sVbackground
p2165
V0
sVoverall1
p2166
V1
sVoverall3
p2167
V5
sVoverall2
p2168
V1
sVoverall4
p2169
V1
sa(dp2170
Vrt
p2171
I30174
sVc_id
p2172
I550
sVphase
p2173
VFINAL-OVERALL
p2174
sVbackground
p2175
V0
sVoverall1
p2176
V1
sVoverall3
p2177
V2
sVoverall2
p2178
V1
sVoverall4
p2179
V1
sa(dp2180
Vrt
p2181
I61504
sVc_id
p2182
I867
sVphase
p2183
VFINAL-OVERALL
p2184
sVbackground
p2185
V0
sVoverall1
p2186
V2
sVoverall3
p2187
V2
sVoverall2
p2188
V1
sVoverall4
p2189
V1
sa(dp2190
Vrt
p2191
I19935
sVc_id
p2192
I296
sVphase
p2193
VFINAL-OVERALL
p2194
sVbackground
p2195
V1
sVoverall1
p2196
V1
sVoverall3
p2197
V5
sVoverall2
p2198
V1
sVoverall4
p2199
V1
sa(dp2200
Vrt
p2201
I22446
sVc_id
p2202
I762
sVphase
p2203
VFINAL-OVERALL
p2204
sVbackground
p2205
V1
sVoverall1
p2206
V1
sVoverall3
p2207
V5
sVoverall2
p2208
V1
sVoverall4
p2209
V4
sa(dp2210
Vrt
p2211
I28318
sVc_id
p2212
I742
sVphase
p2213
VFINAL-OVERALL
p2214
sVbackground
p2215
V1
sVoverall1
p2216
V4
sVoverall3
p2217
V1
sVoverall2
p2218
V2
sVoverall4
p2219
V5
sa(dp2220
Vrt
p2221
I17619
sVc_id
p2222
I37
sVphase
p2223
VFINAL-OVERALL
p2224
sVbackground
p2225
V1
sVoverall1
p2226
V2
sVoverall3
p2227
V5
sVoverall2
p2228
V3
sVoverall4
p2229
V4
sa(dp2230
Vrt
p2231
I21198
sVc_id
p2232
I212
sVphase
p2233
VFINAL-OVERALL
p2234
sVbackground
p2235
V0
sVoverall1
p2236
V2
sVoverall3
p2237
V1
sVoverall2
p2238
V5
sVoverall4
p2239
V1
sa(dp2240
Vrt
p2241
I25333
sVc_id
p2242
I520
sVphase
p2243
VFINAL-OVERALL
p2244
sVbackground
p2245
V1
sVoverall1
p2246
V4
sVoverall3
p2247
V1
sVoverall2
p2248
V4
sVoverall4
p2249
V1
sa(dp2250
Vrt
p2251
I18511
sVc_id
p2252
I451
sVphase
p2253
VFINAL-OVERALL
p2254
sVbackground
p2255
V0
sVoverall1
p2256
V1
sVoverall3
p2257
V1
sVoverall2
p2258
V5
sVoverall4
p2259
V1
sa(dp2260
Vrt
p2261
I27239
sVc_id
p2262
I778
sVphase
p2263
VFINAL-OVERALL
p2264
sVbackground
p2265
V0
sVoverall1
p2266
V1
sVoverall3
p2267
V1
sVoverall2
p2268
V4
sVoverall4
p2269
V3
sa(dp2270
Vrt
p2271
I26123
sVc_id
p2272
I106
sVphase
p2273
VFINAL-OVERALL
p2274
sVbackground
p2275
V1
sVoverall1
p2276
V5
sVoverall3
p2277
V1
sVoverall2
p2278
V2
sVoverall4
p2279
V2
sa(dp2280
Vrt
p2281
I16076
sVc_id
p2282
I747
sVphase
p2283
VFINAL-OVERALL
p2284
sVbackground
p2285
V1
sVoverall1
p2286
V5
sVoverall3
p2287
V3
sVoverall2
p2288
V5
sVoverall4
p2289
V2
sa(dp2290
Vrt
p2291
I24355
sVc_id
p2292
I376
sVphase
p2293
VFINAL-OVERALL
p2294
sVbackground
p2295
V0
sVoverall1
p2296
V1
sVoverall3
p2297
V5
sVoverall2
p2298
V2
sVoverall4
p2299
V2
sa(dp2300
Vrt
p2301
I15611
sVc_id
p2302
I86
sVphase
p2303
VFINAL-OVERALL
p2304
sVbackground
p2305
V0
sVoverall1
p2306
V1
sVoverall3
p2307
V1
sVoverall2
p2308
V4
sVoverall4
p2309
V2
sa(dp2310
Vrt
p2311
I20070
sVc_id
p2312
I705
sVphase
p2313
VFINAL-OVERALL
p2314
sVbackground
p2315
V1
sVoverall1
p2316
V4
sVoverall3
p2317
V4
sVoverall2
p2318
V1
sVoverall4
p2319
V5
sa(dp2320
Vrt
p2321
I22680
sVc_id
p2322
I976
sVphase
p2323
VFINAL-OVERALL
p2324
sVbackground
p2325
V1
sVoverall1
p2326
V4
sVoverall3
p2327
V5
sVoverall2
p2328
V1
sVoverall4
p2329
V1
sa(dp2330
Vrt
p2331
I21799
sVc_id
p2332
I174
sVphase
p2333
VFINAL-OVERALL
p2334
sVbackground
p2335
V0
sVoverall1
p2336
V2
sVoverall3
p2337
V1
sVoverall2
p2338
V1
sVoverall4
p2339
V1
sa(dp2340
Vrt
p2341
I29591
sVc_id
p2342
I808
sVphase
p2343
VFINAL-OVERALL
p2344
sVbackground
p2345
V0
sVoverall1
p2346
V1
sVoverall3
p2347
V3
sVoverall2
p2348
V1
sVoverall4
p2349
V4
sa(dp2350
Vrt
p2351
I15971
sVc_id
p2352
I-3
sVphase
p2353
VFINAL-OVERALL
p2354
sVbackground
p2355
V1
sVoverall1
p2356
V5
sVoverall3
p2357
V2
sVoverall2
p2358
V5
sVoverall4
p2359
V1
sa(dp2360
Vrt
p2361
I29137
sVc_id
p2362
I752
sVphase
p2363
VFINAL-OVERALL
p2364
sVbackground
p2365
V1
sVoverall1
p2366
V2
sVoverall3
p2367
V4
sVoverall2
p2368
V3
sVoverall4
p2369
V4
sasS'AYXIDCIGUA037:3907X2AHF06BMVPDD7276QL5PNCP2I'
p2370
(lp2371
(dp2372
Vrt
p2373
I53999
sVc_id
p2374
I324
sVphase
p2375
VFINAL-OVERALL
p2376
sVbackground
p2377
V1
sVoverall1
p2378
V3
sVoverall3
p2379
V1
sVoverall2
p2380
V1
sVoverall4
p2381
V5
sa(dp2382
Vrt
p2383
I45623
sVc_id
p2384
I926
sVphase
p2385
VFINAL-OVERALL
p2386
sVbackground
p2387
V1
sVoverall1
p2388
V5
sVoverall3
p2389
V1
sVoverall2
p2390
V2
sVoverall4
p2391
V1
sa(dp2392
Vrt
p2393
I42735
sVc_id
p2394
I311
sVphase
p2395
VFINAL-OVERALL
p2396
sVbackground
p2397
V1
sVoverall1
p2398
V1
sVoverall3
p2399
V1
sVoverall2
p2400
V1
sVoverall4
p2401
V5
sa(dp2402
Vrt
p2403
I17543
sVc_id
p2404
I-4
sVphase
p2405
VFINAL-OVERALL
p2406
sVbackground
p2407
V1
sVoverall1
p2408
V5
sVoverall3
p2409
V1
sVoverall2
p2410
V5
sVoverall4
p2411
V1
sa(dp2412
Vrt
p2413
I17013
sVc_id
p2414
I636
sVphase
p2415
VFINAL-OVERALL
p2416
sVbackground
p2417
V1
sVoverall1
p2418
V1
sVoverall3
p2419
V1
sVoverall2
p2420
V5
sVoverall4
p2421
V1
sa(dp2422
Vrt
p2423
I22581
sVc_id
p2424
I976
sVphase
p2425
VFINAL-OVERALL
p2426
sVbackground
p2427
V1
sVoverall1
p2428
V5
sVoverall3
p2429
V5
sVoverall2
p2430
V3
sVoverall4
p2431
V1
sa(dp2432
Vrt
p2433
I17784
sVc_id
p2434
I789
sVphase
p2435
VFINAL-OVERALL
p2436
sVbackground
p2437
V1
sVoverall1
p2438
V1
sVoverall3
p2439
V1
sVoverall2
p2440
V1
sVoverall4
p2441
V5
sa(dp2442
Vrt
p2443
I18513
sVc_id
p2444
I767
sVphase
p2445
VFINAL-OVERALL
p2446
sVbackground
p2447
V1
sVoverall1
p2448
V5
sVoverall3
p2449
V5
sVoverall2
p2450
V1
sVoverall4
p2451
V1
sa(dp2452
Vrt
p2453
I26792
sVc_id
p2454
I860
sVphase
p2455
VFINAL-OVERALL
p2456
sVbackground
p2457
V1
sVoverall1
p2458
V1
sVoverall3
p2459
V1
sVoverall2
p2460
V3
sVoverall4
p2461
V5
sa(dp2462
Vrt
p2463
I94363
sVc_id
p2464
I226
sVphase
p2465
VFINAL-OVERALL
p2466
sVbackground
p2467
V1
sVoverall1
p2468
V5
sVoverall3
p2469
V1
sVoverall2
p2470
V1
sVoverall4
p2471
V5
sa(dp2472
Vrt
p2473
I339997
sVc_id
p2474
I962
sVphase
p2475
VFINAL-OVERALL
p2476
sVbackground
p2477
V1
sVoverall1
p2478
V5
sVoverall3
p2479
V3
sVoverall2
p2480
V1
sVoverall4
p2481
V5
sa(dp2482
Vrt
p2483
I59428
sVc_id
p2484
I212
sVphase
p2485
VFINAL-OVERALL
p2486
sVbackground
p2487
V1
sVoverall1
p2488
V1
sVoverall3
p2489
V2
sVoverall2
p2490
V5
sVoverall4
p2491
V1
sa(dp2492
Vrt
p2493
I24695
sVc_id
p2494
I342
sVphase
p2495
VFINAL-OVERALL
p2496
sVbackground
p2497
V1
sVoverall1
p2498
V4
sVoverall3
p2499
V5
sVoverall2
p2500
V1
sVoverall4
p2501
V5
sa(dp2502
Vrt
p2503
I114634
sVc_id
p2504
I381
sVphase
p2505
VFINAL-OVERALL
p2506
sVbackground
p2507
V1
sVoverall1
p2508
V1
sVoverall3
p2509
V5
sVoverall2
p2510
V3
sVoverall4
p2511
V1
sa(dp2512
Vrt
p2513
I26415
sVc_id
p2514
I107
sVphase
p2515
VFINAL-OVERALL
p2516
sVbackground
p2517
V1
sVoverall1
p2518
V5
sVoverall3
p2519
V4
sVoverall2
p2520
V1
sVoverall4
p2521
V1
sa(dp2522
Vrt
p2523
I328140
sVc_id
p2524
I821
sVphase
p2525
VFINAL-OVERALL
p2526
sVbackground
p2527
V1
sVoverall1
p2528
V2
sVoverall3
p2529
V3
sVoverall2
p2530
V4
sVoverall4
p2531
V1
sa(dp2532
Vrt
p2533
I78069
sVc_id
p2534
I329
sVphase
p2535
VFINAL-OVERALL
p2536
sVbackground
p2537
V1
sVoverall1
p2538
V2
sVoverall3
p2539
V5
sVoverall2
p2540
V1
sVoverall4
p2541
V1
sa(dp2542
Vrt
p2543
I104396
sVc_id
p2544
I-2
sVphase
p2545
VFINAL-OVERALL
p2546
sVbackground
p2547
V1
sVoverall1
p2548
V5
sVoverall3
p2549
V1
sVoverall2
p2550
V5
sVoverall4
p2551
V1
sa(dp2552
Vrt
p2553
I21360
sVc_id
p2554
I124
sVphase
p2555
VFINAL-OVERALL
p2556
sVbackground
p2557
V1
sVoverall1
p2558
V1
sVoverall3
p2559
V1
sVoverall2
p2560
V5
sVoverall4
p2561
V5
sa(dp2562
Vrt
p2563
I37472
sVc_id
p2564
I380
sVphase
p2565
VFINAL-OVERALL
p2566
sVbackground
p2567
V1
sVoverall1
p2568
V5
sVoverall3
p2569
V5
sVoverall2
p2570
V1
sVoverall4
p2571
V1
sa(dp2572
Vrt
p2573
I29556
sVc_id
p2574
I668
sVphase
p2575
VFINAL-OVERALL
p2576
sVbackground
p2577
V1
sVoverall1
p2578
V3
sVoverall3
p2579
V3
sVoverall2
p2580
V3
sVoverall4
p2581
V5
sa(dp2582
Vrt
p2583
I31995
sVc_id
p2584
I264
sVphase
p2585
VFINAL-OVERALL
p2586
sVbackground
p2587
V1
sVoverall1
p2588
V3
sVoverall3
p2589
V1
sVoverall2
p2590
V5
sVoverall4
p2591
V1
sa(dp2592
Vrt
p2593
I36841
sVc_id
p2594
I723
sVphase
p2595
VFINAL-OVERALL
p2596
sVbackground
p2597
V1
sVoverall1
p2598
V2
sVoverall3
p2599
V5
sVoverall2
p2600
V5
sVoverall4
p2601
V1
sa(dp2602
Vrt
p2603
I20484
sVc_id
p2604
I-3
sVphase
p2605
VFINAL-OVERALL
p2606
sVbackground
p2607
V1
sVoverall1
p2608
V5
sVoverall3
p2609
V1
sVoverall2
p2610
V5
sVoverall4
p2611
V1
sa(dp2612
Vrt
p2613
I41527
sVc_id
p2614
I631
sVphase
p2615
VFINAL-OVERALL
p2616
sVbackground
p2617
V1
sVoverall1
p2618
V1
sVoverall3
p2619
V2
sVoverall2
p2620
V5
sVoverall4
p2621
V4
sa(dp2622
Vrt
p2623
I64062
sVc_id
p2624
I898
sVphase
p2625
VFINAL-OVERALL
p2626
sVbackground
p2627
V1
sVoverall1
p2628
V2
sVoverall3
p2629
V5
sVoverall2
p2630
V1
sVoverall4
p2631
V3
sa(dp2632
Vrt
p2633
I19878
sVc_id
p2634
I599
sVphase
p2635
VFINAL-OVERALL
p2636
sVbackground
p2637
V1
sVoverall1
p2638
V1
sVoverall3
p2639
V2
sVoverall2
p2640
V5
sVoverall4
p2641
V2
sa(dp2642
Vrt
p2643
I32948
sVc_id
p2644
I496
sVphase
p2645
VFINAL-OVERALL
p2646
sVbackground
p2647
V1
sVoverall1
p2648
V4
sVoverall3
p2649
V2
sVoverall2
p2650
V1
sVoverall4
p2651
V3
sa(dp2652
Vrt
p2653
I24311
sVc_id
p2654
I116
sVphase
p2655
VFINAL-OVERALL
p2656
sVbackground
p2657
V1
sVoverall1
p2658
V5
sVoverall3
p2659
V1
sVoverall2
p2660
V1
sVoverall4
p2661
V1
sa(dp2662
Vrt
p2663
I39703
sVc_id
p2664
I987
sVphase
p2665
VFINAL-OVERALL
p2666
sVbackground
p2667
V1
sVoverall1
p2668
V4
sVoverall3
p2669
V5
sVoverall2
p2670
V2
sVoverall4
p2671
V5
sa(dp2672
Vrt
p2673
I1100414
sVc_id
p2674
I973
sVphase
p2675
VFINAL-OVERALL
p2676
sVbackground
p2677
V1
sVoverall1
p2678
V2
sVoverall3
p2679
V2
sVoverall2
p2680
V5
sVoverall4
p2681
V1
sa(dp2682
Vrt
p2683
I31265
sVc_id
p2684
I608
sVphase
p2685
VFINAL-OVERALL
p2686
sVbackground
p2687
V1
sVoverall1
p2688
V5
sVoverall3
p2689
V5
sVoverall2
p2690
V2
sVoverall4
p2691
V2
sa(dp2692
Vrt
p2693
I44610
sVc_id
p2694
I622
sVphase
p2695
VFINAL-OVERALL
p2696
sVbackground
p2697
V1
sVoverall1
p2698
V5
sVoverall3
p2699
V5
sVoverall2
p2700
V1
sVoverall4
p2701
V4
sa(dp2702
Vrt
p2703
I148942
sVc_id
p2704
I629
sVphase
p2705
VFINAL-OVERALL
p2706
sVbackground
p2707
V1
sVoverall1
p2708
V1
sVoverall3
p2709
V4
sVoverall2
p2710
V5
sVoverall4
p2711
V1
sa(dp2712
Vrt
p2713
I157068
sVc_id
p2714
I574
sVphase
p2715
VFINAL-OVERALL
p2716
sVbackground
p2717
V1
sVoverall1
p2718
V3
sVoverall3
p2719
V1
sVoverall2
p2720
V1
sVoverall4
p2721
V1
sa(dp2722
Vrt
p2723
I41238
sVc_id
p2724
I208
sVphase
p2725
VFINAL-OVERALL
p2726
sVbackground
p2727
V1
sVoverall1
p2728
V3
sVoverall3
p2729
V1
sVoverall2
p2730
V5
sVoverall4
p2731
V1
sa(dp2732
Vrt
p2733
I55040
sVc_id
p2734
I259
sVphase
p2735
VFINAL-OVERALL
p2736
sVbackground
p2737
V1
sVoverall1
p2738
V1
sVoverall3
p2739
V1
sVoverall2
p2740
V1
sVoverall4
p2741
V5
sa(dp2742
Vrt
p2743
I16246
sVc_id
p2744
I-1
sVphase
p2745
VFINAL-OVERALL
p2746
sVbackground
p2747
V1
sVoverall1
p2748
V5
sVoverall3
p2749
V1
sVoverall2
p2750
V5
sVoverall4
p2751
V1
sa(dp2752
Vrt
p2753
I22505
sVc_id
p2754
I438
sVphase
p2755
VFINAL-OVERALL
p2756
sVbackground
p2757
V1
sVoverall1
p2758
V1
sVoverall3
p2759
V1
sVoverall2
p2760
V3
sVoverall4
p2761
V5
sa(dp2762
Vrt
p2763
I40418
sVc_id
p2764
I135
sVphase
p2765
VFINAL-OVERALL
p2766
sVbackground
p2767
V1
sVoverall1
p2768
V4
sVoverall3
p2769
V1
sVoverall2
p2770
V5
sVoverall4
p2771
V2
sa(dp2772
Vrt
p2773
I27661
sVc_id
p2774
I345
sVphase
p2775
VFINAL-OVERALL
p2776
sVbackground
p2777
V1
sVoverall1
p2778
V1
sVoverall3
p2779
V5
sVoverall2
p2780
V5
sVoverall4
p2781
V4
sa(dp2782
Vrt
p2783
I31310
sVc_id
p2784
I168
sVphase
p2785
VFINAL-OVERALL
p2786
sVbackground
p2787
V1
sVoverall1
p2788
V1
sVoverall3
p2789
V1
sVoverall2
p2790
V3
sVoverall4
p2791
V3
sa(dp2792
Vrt
p2793
I26693
sVc_id
p2794
I738
sVphase
p2795
VFINAL-OVERALL
p2796
sVbackground
p2797
V1
sVoverall1
p2798
V5
sVoverall3
p2799
V5
sVoverall2
p2800
V2
sVoverall4
p2801
V1
sa(dp2802
Vrt
p2803
I54545
sVc_id
p2804
I907
sVphase
p2805
VFINAL-OVERALL
p2806
sVbackground
p2807
V1
sVoverall1
p2808
V5
sVoverall3
p2809
V1
sVoverall2
p2810
V3
sVoverall4
p2811
V2
sa(dp2812
Vrt
p2813
I50902
sVc_id
p2814
I871
sVphase
p2815
VFINAL-OVERALL
p2816
sVbackground
p2817
V1
sVoverall1
p2818
V5
sVoverall3
p2819
V5
sVoverall2
p2820
V1
sVoverall4
p2821
V5
sa(dp2822
Vrt
p2823
I39184
sVc_id
p2824
I355
sVphase
p2825
VFINAL-OVERALL
p2826
sVbackground
p2827
V1
sVoverall1
p2828
V1
sVoverall3
p2829
V1
sVoverall2
p2830
V1
sVoverall4
p2831
V1
sa(dp2832
Vrt
p2833
I41963
sVc_id
p2834
I220
sVphase
p2835
VFINAL-OVERALL
p2836
sVbackground
p2837
V1
sVoverall1
p2838
V5
sVoverall3
p2839
V4
sVoverall2
p2840
V1
sVoverall4
p2841
V2
sa(dp2842
Vrt
p2843
I88515
sVc_id
p2844
I721
sVphase
p2845
VFINAL-OVERALL
p2846
sVbackground
p2847
V1
sVoverall1
p2848
V3
sVoverall3
p2849
V4
sVoverall2
p2850
V1
sVoverall4
p2851
V5
sa(dp2852
Vrt
p2853
I34154
sVc_id
p2854
I139
sVphase
p2855
VFINAL-OVERALL
p2856
sVbackground
p2857
V1
sVoverall1
p2858
V5
sVoverall3
p2859
V1
sVoverall2
p2860
V1
sVoverall4
p2861
V5
sa(dp2862
Vrt
p2863
I47060
sVc_id
p2864
I896
sVphase
p2865
VFINAL-OVERALL
p2866
sVbackground
p2867
V1
sVoverall1
p2868
V4
sVoverall3
p2869
V5
sVoverall2
p2870
V1
sVoverall4
p2871
V5
sa(dp2872
Vrt
p2873
I21667
sVc_id
p2874
I677
sVphase
p2875
VFINAL-OVERALL
p2876
sVbackground
p2877
V1
sVoverall1
p2878
V1
sVoverall3
p2879
V1
sVoverall2
p2880
V5
sVoverall4
p2881
V2
sa(dp2882
Vrt
p2883
I46045
sVc_id
p2884
I975
sVphase
p2885
VFINAL-OVERALL
p2886
sVbackground
p2887
V1
sVoverall1
p2888
V2
sVoverall3
p2889
V1
sVoverall2
p2890
V1
sVoverall4
p2891
V1
sa(dp2892
Vrt
p2893
I28539
sVc_id
p2894
I948
sVphase
p2895
VFINAL-OVERALL
p2896
sVbackground
p2897
V1
sVoverall1
p2898
V1
sVoverall3
p2899
V5
sVoverall2
p2900
V1
sVoverall4
p2901
V5
sa(dp2902
Vrt
p2903
I21049
sVc_id
p2904
I770
sVphase
p2905
VFINAL-OVERALL
p2906
sVbackground
p2907
V1
sVoverall1
p2908
V1
sVoverall3
p2909
V1
sVoverall2
p2910
V1
sVoverall4
p2911
V5
sa(dp2912
Vrt
p2913
I23553
sVc_id
p2914
I128
sVphase
p2915
VFINAL-OVERALL
p2916
sVbackground
p2917
V1
sVoverall1
p2918
V5
sVoverall3
p2919
V1
sVoverall2
p2920
V1
sVoverall4
p2921
V5
sa(dp2922
Vrt
p2923
I25459
sVc_id
p2924
I813
sVphase
p2925
VFINAL-OVERALL
p2926
sVbackground
p2927
V1
sVoverall1
p2928
V1
sVoverall3
p2929
V5
sVoverall2
p2930
V1
sVoverall4
p2931
V2
sa(dp2932
Vrt
p2933
I30403
sVc_id
p2934
I525
sVphase
p2935
VFINAL-OVERALL
p2936
sVbackground
p2937
V1
sVoverall1
p2938
V3
sVoverall3
p2939
V5
sVoverall2
p2940
V1
sVoverall4
p2941
V2
sa(dp2942
Vrt
p2943
I18731
sVc_id
p2944
I921
sVphase
p2945
VFINAL-OVERALL
p2946
sVbackground
p2947
V1
sVoverall1
p2948
V1
sVoverall3
p2949
V1
sVoverall2
p2950
V1
sVoverall4
p2951
V2
sa(dp2952
Vrt
p2953
I20754
sVc_id
p2954
I679
sVphase
p2955
VFINAL-OVERALL
p2956
sVbackground
p2957
V1
sVoverall1
p2958
V5
sVoverall3
p2959
V1
sVoverall2
p2960
V3
sVoverall4
p2961
V1
sasS'A2KPT0PEUEXCC4:3MX2NQ3YC9V8U1ARHHEMYAAKBUK5XR'
p2962
(lp2963
(dp2964
Vrt
p2965
I41866
sVc_id
p2966
I382
sVphase
p2967
VFINAL-OVERALL
p2968
sVbackground
p2969
V1
sVoverall1
p2970
V5
sVoverall3
p2971
V5
sVoverall2
p2972
V2
sVoverall4
p2973
V3
sa(dp2974
Vrt
p2975
I35868
sVc_id
p2976
I810
sVphase
p2977
VFINAL-OVERALL
p2978
sVbackground
p2979
V1
sVoverall1
p2980
V3
sVoverall3
p2981
V3
sVoverall2
p2982
V5
sVoverall4
p2983
V2
sa(dp2984
Vrt
p2985
I23364
sVc_id
p2986
I353
sVphase
p2987
VFINAL-OVERALL
p2988
sVbackground
p2989
V0
sVoverall1
p2990
V1
sVoverall3
p2991
V1
sVoverall2
p2992
V4
sVoverall4
p2993
V5
sa(dp2994
Vrt
p2995
I28630
sVc_id
p2996
I751
sVphase
p2997
VFINAL-OVERALL
p2998
sVbackground
p2999
V1
sVoverall1
p3000
V1
sVoverall3
p3001
V3
sVoverall2
p3002
V4
sVoverall4
p3003
V5
sa(dp3004
Vrt
p3005
I20336
sVc_id
p3006
I77
sVphase
p3007
VFINAL-OVERALL
p3008
sVbackground
p3009
V1
sVoverall1
p3010
V5
sVoverall3
p3011
V3
sVoverall2
p3012
V4
sVoverall4
p3013
V3
sa(dp3014
Vrt
p3015
I24771
sVc_id
p3016
I981
sVphase
p3017
VFINAL-OVERALL
p3018
sVbackground
p3019
V0
sVoverall1
p3020
V4
sVoverall3
p3021
V2
sVoverall2
p3022
V3
sVoverall4
p3023
V5
sa(dp3024
Vrt
p3025
I15211
sVc_id
p3026
I-4
sVphase
p3027
VFINAL-OVERALL
p3028
sVbackground
p3029
V1
sVoverall1
p3030
V5
sVoverall3
p3031
V1
sVoverall2
p3032
V4
sVoverall4
p3033
V3
sa(dp3034
Vrt
p3035
I27994
sVc_id
p3036
I713
sVphase
p3037
VFINAL-OVERALL
p3038
sVbackground
p3039
V1
sVoverall1
p3040
V3
sVoverall3
p3041
V4
sVoverall2
p3042
V1
sVoverall4
p3043
V2
sa(dp3044
Vrt
p3045
I17921
sVc_id
p3046
I941
sVphase
p3047
VFINAL-OVERALL
p3048
sVbackground
p3049
V0
sVoverall1
p3050
V3
sVoverall3
p3051
V4
sVoverall2
p3052
V1
sVoverall4
p3053
V5
sa(dp3054
Vrt
p3055
I34439
sVc_id
p3056
I748
sVphase
p3057
VFINAL-OVERALL
p3058
sVbackground
p3059
V1
sVoverall1
p3060
V5
sVoverall3
p3061
V4
sVoverall2
p3062
V4
sVoverall4
p3063
V2
sa(dp3064
Vrt
p3065
I19803
sVc_id
p3066
I356
sVphase
p3067
VFINAL-OVERALL
p3068
sVbackground
p3069
V0
sVoverall1
p3070
V2
sVoverall3
p3071
V5
sVoverall2
p3072
V3
sVoverall4
p3073
V4
sa(dp3074
Vrt
p3075
I22952
sVc_id
p3076
I91
sVphase
p3077
VFINAL-OVERALL
p3078
sVbackground
p3079
V1
sVoverall1
p3080
V5
sVoverall3
p3081
V4
sVoverall2
p3082
V3
sVoverall4
p3083
V3
sa(dp3084
Vrt
p3085
I14922
sVc_id
p3086
I0
sVphase
p3087
VFINAL-OVERALL
p3088
sVbackground
p3089
V1
sVoverall1
p3090
V3
sVoverall3
p3091
V2
sVoverall2
p3092
V5
sVoverall4
p3093
V5
sa(dp3094
Vrt
p3095
I23653
sVc_id
p3096
I19
sVphase
p3097
VFINAL-OVERALL
p3098
sVbackground
p3099
V0
sVoverall1
p3100
V4
sVoverall3
p3101
V5
sVoverall2
p3102
V1
sVoverall4
p3103
V3
sa(dp3104
Vrt
p3105
I18853
sVc_id
p3106
I8
sVphase
p3107
VFINAL-OVERALL
p3108
sVbackground
p3109
V1
sVoverall1
p3110
V5
sVoverall3
p3111
V4
sVoverall2
p3112
V2
sVoverall4
p3113
V3
sa(dp3114
Vrt
p3115
I15607
sVc_id
p3116
I976
sVphase
p3117
VFINAL-OVERALL
p3118
sVbackground
p3119
V1
sVoverall1
p3120
V5
sVoverall3
p3121
V4
sVoverall2
p3122
V3
sVoverall4
p3123
V1
sa(dp3124
Vrt
p3125
I23776
sVc_id
p3126
I358
sVphase
p3127
VFINAL-OVERALL
p3128
sVbackground
p3129
V1
sVoverall1
p3130
V1
sVoverall3
p3131
V4
sVoverall2
p3132
V3
sVoverall4
p3133
V5
sa(dp3134
Vrt
p3135
I12321
sVc_id
p3136
I-1
sVphase
p3137
VFINAL-OVERALL
p3138
sVbackground
p3139
V1
sVoverall1
p3140
V5
sVoverall3
p3141
V1
sVoverall2
p3142
V4
sVoverall4
p3143
V2
sa(dp3144
Vrt
p3145
I18785
sVc_id
p3146
I659
sVphase
p3147
VFINAL-OVERALL
p3148
sVbackground
p3149
V0
sVoverall1
p3150
V1
sVoverall3
p3151
V5
sVoverall2
p3152
V4
sVoverall4
p3153
V1
sa(dp3154
Vrt
p3155
I14775
sVc_id
p3156
I100
sVphase
p3157
VFINAL-OVERALL
p3158
sVbackground
p3159
V0
sVoverall1
p3160
V4
sVoverall3
p3161
V1
sVoverall2
p3162
V5
sVoverall4
p3163
V2
sa(dp3164
Vrt
p3165
I30696
sVc_id
p3166
I380
sVphase
p3167
VFINAL-OVERALL
p3168
sVbackground
p3169
V1
sVoverall1
p3170
V5
sVoverall3
p3171
V4
sVoverall2
p3172
V1
sVoverall4
p3173
V2
sa(dp3174
Vrt
p3175
I21317
sVc_id
p3176
I274
sVphase
p3177
VFINAL-OVERALL
p3178
sVbackground
p3179
V0
sVoverall1
p3180
V1
sVoverall3
p3181
V4
sVoverall2
p3182
V2
sVoverall4
p3183
V5
sa(dp3184
Vrt
p3185
I19670
sVc_id
p3186
I911
sVphase
p3187
VFINAL-OVERALL
p3188
sVbackground
p3189
V1
sVoverall1
p3190
V5
sVoverall3
p3191
V3
sVoverall2
p3192
V1
sVoverall4
p3193
V2
sa(dp3194
Vrt
p3195
I14221
sVc_id
p3196
I64
sVphase
p3197
VFINAL-OVERALL
p3198
sVbackground
p3199
V1
sVoverall1
p3200
V5
sVoverall3
p3201
V3
sVoverall2
p3202
V2
sVoverall4
p3203
V4
sa(dp3204
Vrt
p3205
I88670
sVc_id
p3206
I383
sVphase
p3207
VFINAL-OVERALL
p3208
sVbackground
p3209
V1
sVoverall1
p3210
V2
sVoverall3
p3211
V4
sVoverall2
p3212
V1
sVoverall4
p3213
V5
sa(dp3214
Vrt
p3215
I24471
sVc_id
p3216
I869
sVphase
p3217
VFINAL-OVERALL
p3218
sVbackground
p3219
V0
sVoverall1
p3220
V2
sVoverall3
p3221
V4
sVoverall2
p3222
V1
sVoverall4
p3223
V4
sa(dp3224
Vrt
p3225
I10248
sVc_id
p3226
I-2
sVphase
p3227
VFINAL-OVERALL
p3228
sVbackground
p3229
V1
sVoverall1
p3230
V5
sVoverall3
p3231
V1
sVoverall2
p3232
V4
sVoverall4
p3233
V2
sa(dp3234
Vrt
p3235
I98502
sVc_id
p3236
I966
sVphase
p3237
VFINAL-OVERALL
p3238
sVbackground
p3239
V1
sVoverall1
p3240
V1
sVoverall3
p3241
V5
sVoverall2
p3242
V2
sVoverall4
p3243
V1
sa(dp3244
Vrt
p3245
I21676
sVc_id
p3246
I574
sVphase
p3247
VFINAL-OVERALL
p3248
sVbackground
p3249
V1
sVoverall1
p3250
V5
sVoverall3
p3251
V3
sVoverall2
p3252
V1
sVoverall4
p3253
V2
sa(dp3254
Vrt
p3255
I17746
sVc_id
p3256
I39
sVphase
p3257
VFINAL-OVERALL
p3258
sVbackground
p3259
V0
sVoverall1
p3260
V5
sVoverall3
p3261
V3
sVoverall2
p3262
V4
sVoverall4
p3263
V1
sa(dp3264
Vrt
p3265
I25877
sVc_id
p3266
I15
sVphase
p3267
VFINAL-OVERALL
p3268
sVbackground
p3269
V0
sVoverall1
p3270
V2
sVoverall3
p3271
V5
sVoverall2
p3272
V3
sVoverall4
p3273
V1
sa(dp3274
Vrt
p3275
I20200
sVc_id
p3276
I6
sVphase
p3277
VFINAL-OVERALL
p3278
sVbackground
p3279
V0
sVoverall1
p3280
V5
sVoverall3
p3281
V3
sVoverall2
p3282
V4
sVoverall4
p3283
V2
sa(dp3284
Vrt
p3285
I21935
sVc_id
p3286
I754
sVphase
p3287
VFINAL-OVERALL
p3288
sVbackground
p3289
V1
sVoverall1
p3290
V2
sVoverall3
p3291
V1
sVoverall2
p3292
V5
sVoverall4
p3293
V4
sa(dp3294
Vrt
p3295
I23533
sVc_id
p3296
I972
sVphase
p3297
VFINAL-OVERALL
p3298
sVbackground
p3299
V1
sVoverall1
p3300
V5
sVoverall3
p3301
V4
sVoverall2
p3302
V1
sVoverall4
p3303
V1
sa(dp3304
Vrt
p3305
I26710
sVc_id
p3306
I504
sVphase
p3307
VFINAL-OVERALL
p3308
sVbackground
p3309
V0
sVoverall1
p3310
V3
sVoverall3
p3311
V4
sVoverall2
p3312
V1
sVoverall4
p3313
V2
sa(dp3314
Vrt
p3315
I13926
sVc_id
p3316
I545
sVphase
p3317
VFINAL-OVERALL
p3318
sVbackground
p3319
V0
sVoverall1
p3320
V5
sVoverall3
p3321
V1
sVoverall2
p3322
V1
sVoverall4
p3323
V2
sa(dp3324
Vrt
p3325
I22123
sVc_id
p3326
I75
sVphase
p3327
VFINAL-OVERALL
p3328
sVbackground
p3329
V1
sVoverall1
p3330
V5
sVoverall3
p3331
V4
sVoverall2
p3332
V1
sVoverall4
p3333
V3
sa(dp3334
Vrt
p3335
I24412
sVc_id
p3336
I914
sVphase
p3337
VFINAL-OVERALL
p3338
sVbackground
p3339
V0
sVoverall1
p3340
V2
sVoverall3
p3341
V5
sVoverall2
p3342
V3
sVoverall4
p3343
V1
sa(dp3344
Vrt
p3345
I141769
sVc_id
p3346
I459
sVphase
p3347
VFINAL-OVERALL
p3348
sVbackground
p3349
V1
sVoverall1
p3350
V5
sVoverall3
p3351
V1
sVoverall2
p3352
V4
sVoverall4
p3353
V1
sa(dp3354
Vrt
p3355
I39884
sVc_id
p3356
I259
sVphase
p3357
VFINAL-OVERALL
p3358
sVbackground
p3359
V1
sVoverall1
p3360
V3
sVoverall3
p3361
V3
sVoverall2
p3362
V1
sVoverall4
p3363
V4
sa(dp3364
Vrt
p3365
I24516
sVc_id
p3366
I212
sVphase
p3367
VFINAL-OVERALL
p3368
sVbackground
p3369
V1
sVoverall1
p3370
V2
sVoverall3
p3371
V3
sVoverall2
p3372
V5
sVoverall4
p3373
V1
sa(dp3374
Vrt
p3375
I15431
sVc_id
p3376
I-3
sVphase
p3377
VFINAL-OVERALL
p3378
sVbackground
p3379
V1
sVoverall1
p3380
V5
sVoverall3
p3381
V2
sVoverall2
p3382
V4
sVoverall4
p3383
V1
sa(dp3384
Vrt
p3385
I21293
sVc_id
p3386
I917
sVphase
p3387
VFINAL-OVERALL
p3388
sVbackground
p3389
V0
sVoverall1
p3390
V5
sVoverall3
p3391
V3
sVoverall2
p3392
V1
sVoverall4
p3393
V4
sa(dp3394
Vrt
p3395
I19463
sVc_id
p3396
I96
sVphase
p3397
VFINAL-OVERALL
p3398
sVbackground
p3399
V1
sVoverall1
p3400
V2
sVoverall3
p3401
V1
sVoverall2
p3402
V5
sVoverall4
p3403
V2
sa(dp3404
Vrt
p3405
I36265
sVc_id
p3406
I245
sVphase
p3407
VFINAL-OVERALL
p3408
sVbackground
p3409
V1
sVoverall1
p3410
V3
sVoverall3
p3411
V2
sVoverall2
p3412
V4
sVoverall4
p3413
V1
sa(dp3414
Vrt
p3415
I27814
sVc_id
p3416
I740
sVphase
p3417
VFINAL-OVERALL
p3418
sVbackground
p3419
V1
sVoverall1
p3420
V5
sVoverall3
p3421
V1
sVoverall2
p3422
V4
sVoverall4
p3423
V1
sa(dp3424
Vrt
p3425
I23476
sVc_id
p3426
I389
sVphase
p3427
VFINAL-OVERALL
p3428
sVbackground
p3429
V1
sVoverall1
p3430
V5
sVoverall3
p3431
V5
sVoverall2
p3432
V1
sVoverall4
p3433
V2
sa(dp3434
Vrt
p3435
I26454
sVc_id
p3436
I62
sVphase
p3437
VFINAL-OVERALL
p3438
sVbackground
p3439
V0
sVoverall1
p3440
V2
sVoverall3
p3441
V4
sVoverall2
p3442
V1
sVoverall4
p3443
V5
sa(dp3444
Vrt
p3445
I18968
sVc_id
p3446
I507
sVphase
p3447
VFINAL-OVERALL
p3448
sVbackground
p3449
V1
sVoverall1
p3450
V1
sVoverall3
p3451
V5
sVoverall2
p3452
V5
sVoverall4
p3453
V1
sa(dp3454
Vrt
p3455
I20332
sVc_id
p3456
I984
sVphase
p3457
VFINAL-OVERALL
p3458
sVbackground
p3459
V1
sVoverall1
p3460
V3
sVoverall3
p3461
V5
sVoverall2
p3462
V1
sVoverall4
p3463
V4
sa(dp3464
Vrt
p3465
I18064
sVc_id
p3466
I846
sVphase
p3467
VFINAL-OVERALL
p3468
sVbackground
p3469
V0
sVoverall1
p3470
V1
sVoverall3
p3471
V3
sVoverall2
p3472
V4
sVoverall4
p3473
V5
sa(dp3474
Vrt
p3475
I21676
sVc_id
p3476
I50
sVphase
p3477
VFINAL-OVERALL
p3478
sVbackground
p3479
V1
sVoverall1
p3480
V5
sVoverall3
p3481
V4
sVoverall2
p3482
V2
sVoverall4
p3483
V1
sa(dp3484
Vrt
p3485
I28909
sVc_id
p3486
I695
sVphase
p3487
VFINAL-OVERALL
p3488
sVbackground
p3489
V1
sVoverall1
p3490
V2
sVoverall3
p3491
V1
sVoverall2
p3492
V1
sVoverall4
p3493
V5
sa(dp3494
Vrt
p3495
I18431
sVc_id
p3496
I55
sVphase
p3497
VFINAL-OVERALL
p3498
sVbackground
p3499
V0
sVoverall1
p3500
V5
sVoverall3
p3501
V3
sVoverall2
p3502
V5
sVoverall4
p3503
V1
sa(dp3504
Vrt
p3505
I22447
sVc_id
p3506
I624
sVphase
p3507
VFINAL-OVERALL
p3508
sVbackground
p3509
V0
sVoverall1
p3510
V2
sVoverall3
p3511
V3
sVoverall2
p3512
V1
sVoverall4
p3513
V3
sa(dp3514
Vrt
p3515
I15846
sVc_id
p3516
I745
sVphase
p3517
VFINAL-OVERALL
p3518
sVbackground
p3519
V1
sVoverall1
p3520
V1
sVoverall3
p3521
V5
sVoverall2
p3522
V4
sVoverall4
p3523
V2
sa(dp3524
Vrt
p3525
I21689
sVc_id
p3526
I676
sVphase
p3527
VFINAL-OVERALL
p3528
sVbackground
p3529
V1
sVoverall1
p3530
V2
sVoverall3
p3531
V4
sVoverall2
p3532
V5
sVoverall4
p3533
V1
sa(dp3534
Vrt
p3535
I32071
sVc_id
p3536
I567
sVphase
p3537
VFINAL-OVERALL
p3538
sVbackground
p3539
V1
sVoverall1
p3540
V2
sVoverall3
p3541
V4
sVoverall2
p3542
V5
sVoverall4
p3543
V1
sa(dp3544
Vrt
p3545
I24934
sVc_id
p3546
I155
sVphase
p3547
VFINAL-OVERALL
p3548
sVbackground
p3549
V1
sVoverall1
p3550
V4
sVoverall3
p3551
V3
sVoverall2
p3552
V1
sVoverall4
p3553
V5
sasS'A1CH3TODZNQCES:384PI804XS213D2RQ12NI7X1F9Z0SP'
p3554
(lp3555
(dp3556
Vrt
p3557
I80451
sVc_id
p3558
I897
sVphase
p3559
VFINAL-OVERALL
p3560
sVbackground
p3561
V0
sVoverall1
p3562
V1
sVoverall3
p3563
V4
sVoverall2
p3564
V5
sVoverall4
p3565
V4
sa(dp3566
Vrt
p3567
I499995
sVc_id
p3568
I428
sVphase
p3569
VFINAL-OVERALL
p3570
sVbackground
p3571
V1
sVoverall1
p3572
V2
sVoverall3
p3573
V1
sVoverall2
p3574
V2
sVoverall4
p3575
V4
sa(dp3576
Vrt
p3577
I16357
sVc_id
p3578
I485
sVphase
p3579
VFINAL-OVERALL
p3580
sVbackground
p3581
V0
sVoverall1
p3582
V3
sVoverall3
p3583
V4
sVoverall2
p3584
V2
sVoverall4
p3585
V3
sa(dp3586
Vrt
p3587
I121713
sVc_id
p3588
I837
sVphase
p3589
VFINAL-OVERALL
p3590
sVbackground
p3591
V1
sVoverall1
p3592
V1
sVoverall3
p3593
V1
sVoverall2
p3594
V1
sVoverall4
p3595
V1
sa(dp3596
Vrt
p3597
I11379
sVc_id
p3598
I200
sVphase
p3599
VFINAL-OVERALL
p3600
sVbackground
p3601
V1
sVoverall1
p3602
V1
sVoverall3
p3603
V1
sVoverall2
p3604
V1
sVoverall4
p3605
V1
sa(dp3606
Vrt
p3607
I59138
sVc_id
p3608
I-2
sVphase
p3609
VFINAL-OVERALL
p3610
sVbackground
p3611
V1
sVoverall1
p3612
V5
sVoverall3
p3613
V1
sVoverall2
p3614
V5
sVoverall4
p3615
V1
sa(dp3616
Vrt
p3617
I10127
sVc_id
p3618
I70
sVphase
p3619
VFINAL-OVERALL
p3620
sVbackground
p3621
V0
sVoverall1
p3622
V1
sVoverall3
p3623
V1
sVoverall2
p3624
V1
sVoverall4
p3625
V1
sa(dp3626
Vrt
p3627
I16635
sVc_id
p3628
I817
sVphase
p3629
VFINAL-OVERALL
p3630
sVbackground
p3631
V1
sVoverall1
p3632
V5
sVoverall3
p3633
V1
sVoverall2
p3634
V1
sVoverall4
p3635
V1
sa(dp3636
Vrt
p3637
I18656
sVc_id
p3638
I281
sVphase
p3639
VFINAL-OVERALL
p3640
sVbackground
p3641
V1
sVoverall1
p3642
V5
sVoverall3
p3643
V1
sVoverall2
p3644
V1
sVoverall4
p3645
V1
sa(dp3646
Vrt
p3647
I186204
sVc_id
p3648
I259
sVphase
p3649
VFINAL-OVERALL
p3650
sVbackground
p3651
V1
sVoverall1
p3652
V1
sVoverall3
p3653
V1
sVoverall2
p3654
V1
sVoverall4
p3655
V5
sa(dp3656
Vrt
p3657
I30239
sVc_id
p3658
I688
sVphase
p3659
VFINAL-OVERALL
p3660
sVbackground
p3661
V1
sVoverall1
p3662
V1
sVoverall3
p3663
V5
sVoverall2
p3664
V2
sVoverall4
p3665
V1
sa(dp3666
Vrt
p3667
I20419
sVc_id
p3668
I910
sVphase
p3669
VFINAL-OVERALL
p3670
sVbackground
p3671
V1
sVoverall1
p3672
V5
sVoverall3
p3673
V1
sVoverall2
p3674
V1
sVoverall4
p3675
V1
sa(dp3676
Vrt
p3677
I39671
sVc_id
p3678
I294
sVphase
p3679
VFINAL-OVERALL
p3680
sVbackground
p3681
V1
sVoverall1
p3682
V5
sVoverall3
p3683
V1
sVoverall2
p3684
V1
sVoverall4
p3685
V1
sa(dp3686
Vrt
p3687
I60001
sVc_id
p3688
I758
sVphase
p3689
VFINAL-OVERALL
p3690
sVbackground
p3691
V1
sVoverall1
p3692
V5
sVoverall3
p3693
V1
sVoverall2
p3694
V1
sVoverall4
p3695
V2
sa(dp3696
Vrt
p3697
I21468
sVc_id
p3698
I529
sVphase
p3699
VFINAL-OVERALL
p3700
sVbackground
p3701
V1
sVoverall1
p3702
V3
sVoverall3
p3703
V5
sVoverall2
p3704
V3
sVoverall4
p3705
V5
sa(dp3706
Vrt
p3707
I19353
sVc_id
p3708
I574
sVphase
p3709
VFINAL-OVERALL
p3710
sVbackground
p3711
V1
sVoverall1
p3712
V5
sVoverall3
p3713
V1
sVoverall2
p3714
V2
sVoverall4
p3715
V1
sa(dp3716
Vrt
p3717
I11389
sVc_id
p3718
I-4
sVphase
p3719
VFINAL-OVERALL
p3720
sVbackground
p3721
V1
sVoverall1
p3722
V5
sVoverall3
p3723
V1
sVoverall2
p3724
V5
sVoverall4
p3725
V1
sa(dp3726
Vrt
p3727
I13189
sVc_id
p3728
I-3
sVphase
p3729
VFINAL-OVERALL
p3730
sVbackground
p3731
V1
sVoverall1
p3732
V5
sVoverall3
p3733
V1
sVoverall2
p3734
V5
sVoverall4
p3735
V1
sa(dp3736
Vrt
p3737
I9831
sVc_id
p3738
I250
sVphase
p3739
VFINAL-OVERALL
p3740
sVbackground
p3741
V0
sVoverall1
p3742
V1
sVoverall3
p3743
V1
sVoverall2
p3744
V1
sVoverall4
p3745
V1
sa(dp3746
Vrt
p3747
I17250
sVc_id
p3748
I711
sVphase
p3749
VFINAL-OVERALL
p3750
sVbackground
p3751
V1
sVoverall1
p3752
V1
sVoverall3
p3753
V1
sVoverall2
p3754
V5
sVoverall4
p3755
V5
sa(dp3756
Vrt
p3757
I20884
sVc_id
p3758
I377
sVphase
p3759
VFINAL-OVERALL
p3760
sVbackground
p3761
V1
sVoverall1
p3762
V5
sVoverall3
p3763
V1
sVoverall2
p3764
V5
sVoverall4
p3765
V1
sa(dp3766
Vrt
p3767
I10752
sVc_id
p3768
I101
sVphase
p3769
VFINAL-OVERALL
p3770
sVbackground
p3771
V0
sVoverall1
p3772
V1
sVoverall3
p3773
V1
sVoverall2
p3774
V1
sVoverall4
p3775
V1
sa(dp3776
Vrt
p3777
I17312
sVc_id
p3778
I-1
sVphase
p3779
VFINAL-OVERALL
p3780
sVbackground
p3781
V1
sVoverall1
p3782
V5
sVoverall3
p3783
V1
sVoverall2
p3784
V5
sVoverall4
p3785
V1
sa(dp3786
Vrt
p3787
I9918
sVc_id
p3788
I260
sVphase
p3789
VFINAL-OVERALL
p3790
sVbackground
p3791
V1
sVoverall1
p3792
V1
sVoverall3
p3793
V1
sVoverall2
p3794
V1
sVoverall4
p3795
V5
sa(dp3796
Vrt
p3797
I26427
sVc_id
p3798
I511
sVphase
p3799
VFINAL-OVERALL
p3800
sVbackground
p3801
V1
sVoverall1
p3802
V1
sVoverall3
p3803
V1
sVoverall2
p3804
V5
sVoverall4
p3805
V1
sa(dp3806
Vrt
p3807
I30227
sVc_id
p3808
I228
sVphase
p3809
VFINAL-OVERALL
p3810
sVbackground
p3811
V0
sVoverall1
p3812
V1
sVoverall3
p3813
V1
sVoverall2
p3814
V1
sVoverall4
p3815
V1
sa(dp3816
Vrt
p3817
I11117
sVc_id
p3818
I275
sVphase
p3819
VFINAL-OVERALL
p3820
sVbackground
p3821
V0
sVoverall1
p3822
V1
sVoverall3
p3823
V1
sVoverall2
p3824
V1
sVoverall4
p3825
V1
sa(dp3826
Vrt
p3827
I54584
sVc_id
p3828
I534
sVphase
p3829
VFINAL-OVERALL
p3830
sVbackground
p3831
V1
sVoverall1
p3832
V5
sVoverall3
p3833
V5
sVoverall2
p3834
V5
sVoverall4
p3835
V1
sa(dp3836
Vrt
p3837
I15687
sVc_id
p3838
I976
sVphase
p3839
VFINAL-OVERALL
p3840
sVbackground
p3841
V0
sVoverall1
p3842
V1
sVoverall3
p3843
V1
sVoverall2
p3844
V1
sVoverall4
p3845
V1
sa(dp3846
Vrt
p3847
I16536
sVc_id
p3848
I28
sVphase
p3849
VFINAL-OVERALL
p3850
sVbackground
p3851
V0
sVoverall1
p3852
V1
sVoverall3
p3853
V1
sVoverall2
p3854
V1
sVoverall4
p3855
V1
sa(dp3856
Vrt
p3857
I31468
sVc_id
p3858
I544
sVphase
p3859
VFINAL-OVERALL
p3860
sVbackground
p3861
V1
sVoverall1
p3862
V5
sVoverall3
p3863
V1
sVoverall2
p3864
V4
sVoverall4
p3865
V4
sa(dp3866
Vrt
p3867
I16955
sVc_id
p3868
I969
sVphase
p3869
VFINAL-OVERALL
p3870
sVbackground
p3871
V1
sVoverall1
p3872
V5
sVoverall3
p3873
V1
sVoverall2
p3874
V5
sVoverall4
p3875
V1
sa(dp3876
Vrt
p3877
I53747
sVc_id
p3878
I486
sVphase
p3879
VFINAL-OVERALL
p3880
sVbackground
p3881
V0
sVoverall1
p3882
V1
sVoverall3
p3883
V1
sVoverall2
p3884
V1
sVoverall4
p3885
V1
sa(dp3886
Vrt
p3887
I11228
sVc_id
p3888
I741
sVphase
p3889
VFINAL-OVERALL
p3890
sVbackground
p3891
V0
sVoverall1
p3892
V1
sVoverall3
p3893
V1
sVoverall2
p3894
V1
sVoverall4
p3895
V1
sa(dp3896
Vrt
p3897
I25846
sVc_id
p3898
I916
sVphase
p3899
VFINAL-OVERALL
p3900
sVbackground
p3901
V1
sVoverall1
p3902
V1
sVoverall3
p3903
V1
sVoverall2
p3904
V5
sVoverall4
p3905
V5
sa(dp3906
Vrt
p3907
I19762
sVc_id
p3908
I903
sVphase
p3909
VFINAL-OVERALL
p3910
sVbackground
p3911
V0
sVoverall1
p3912
V1
sVoverall3
p3913
V1
sVoverall2
p3914
V1
sVoverall4
p3915
V1
sa(dp3916
Vrt
p3917
I17595
sVc_id
p3918
I435
sVphase
p3919
VFINAL-OVERALL
p3920
sVbackground
p3921
V1
sVoverall1
p3922
V5
sVoverall3
p3923
V5
sVoverall2
p3924
V3
sVoverall4
p3925
V1
sa(dp3926
Vrt
p3927
I19077
sVc_id
p3928
I524
sVphase
p3929
VFINAL-OVERALL
p3930
sVbackground
p3931
V1
sVoverall1
p3932
V3
sVoverall3
p3933
V5
sVoverall2
p3934
V1
sVoverall4
p3935
V4
sa(dp3936
Vrt
p3937
I23243
sVc_id
p3938
I380
sVphase
p3939
VFINAL-OVERALL
p3940
sVbackground
p3941
V1
sVoverall1
p3942
V1
sVoverall3
p3943
V5
sVoverall2
p3944
V1
sVoverall4
p3945
V5
sa(dp3946
Vrt
p3947
I42274
sVc_id
p3948
I304
sVphase
p3949
VFINAL-OVERALL
p3950
sVbackground
p3951
V1
sVoverall1
p3952
V1
sVoverall3
p3953
V2
sVoverall2
p3954
V3
sVoverall4
p3955
V5
sa(dp3956
Vrt
p3957
I63678
sVc_id
p3958
I588
sVphase
p3959
VFINAL-OVERALL
p3960
sVbackground
p3961
V1
sVoverall1
p3962
V5
sVoverall3
p3963
V1
sVoverall2
p3964
V5
sVoverall4
p3965
V1
sa(dp3966
Vrt
p3967
I40466
sVc_id
p3968
I4
sVphase
p3969
VFINAL-OVERALL
p3970
sVbackground
p3971
V1
sVoverall1
p3972
V1
sVoverall3
p3973
V1
sVoverall2
p3974
V5
sVoverall4
p3975
V4
sa(dp3976
Vrt
p3977
I15076
sVc_id
p3978
I212
sVphase
p3979
VFINAL-OVERALL
p3980
sVbackground
p3981
V1
sVoverall1
p3982
V2
sVoverall3
p3983
V1
sVoverall2
p3984
V5
sVoverall4
p3985
V1
sa(dp3986
Vrt
p3987
I27141
sVc_id
p3988
I321
sVphase
p3989
VFINAL-OVERALL
p3990
sVbackground
p3991
V1
sVoverall1
p3992
V1
sVoverall3
p3993
V1
sVoverall2
p3994
V5
sVoverall4
p3995
V5
sa(dp3996
Vrt
p3997
I47453
sVc_id
p3998
I680
sVphase
p3999
VFINAL-OVERALL
p4000
sVbackground
p4001
V1
sVoverall1
p4002
V1
sVoverall3
p4003
V1
sVoverall2
p4004
V1
sVoverall4
p4005
V5
sa(dp4006
Vrt
p4007
I32229
sVc_id
p4008
I594
sVphase
p4009
VFINAL-OVERALL
p4010
sVbackground
p4011
V1
sVoverall1
p4012
V5
sVoverall3
p4013
V1
sVoverall2
p4014
V1
sVoverall4
p4015
V3
sa(dp4016
Vrt
p4017
I33110
sVc_id
p4018
I879
sVphase
p4019
VFINAL-OVERALL
p4020
sVbackground
p4021
V1
sVoverall1
p4022
V4
sVoverall3
p4023
V1
sVoverall2
p4024
V3
sVoverall4
p4025
V1
sa(dp4026
Vrt
p4027
I32875
sVc_id
p4028
I724
sVphase
p4029
VFINAL-OVERALL
p4030
sVbackground
p4031
V1
sVoverall1
p4032
V4
sVoverall3
p4033
V4
sVoverall2
p4034
V1
sVoverall4
p4035
V3
sa(dp4036
Vrt
p4037
I31132
sVc_id
p4038
I865
sVphase
p4039
VFINAL-OVERALL
p4040
sVbackground
p4041
V0
sVoverall1
p4042
V1
sVoverall3
p4043
V1
sVoverall2
p4044
V1
sVoverall4
p4045
V1
sa(dp4046
Vrt
p4047
I10371
sVc_id
p4048
I923
sVphase
p4049
VFINAL-OVERALL
p4050
sVbackground
p4051
V1
sVoverall1
p4052
V5
sVoverall3
p4053
V1
sVoverall2
p4054
V1
sVoverall4
p4055
V4
sa(dp4056
Vrt
p4057
I18135
sVc_id
p4058
I944
sVphase
p4059
VFINAL-OVERALL
p4060
sVbackground
p4061
V1
sVoverall1
p4062
V1
sVoverall3
p4063
V2
sVoverall2
p4064
V2
sVoverall4
p4065
V5
sa(dp4066
Vrt
p4067
I17394
sVc_id
p4068
I480
sVphase
p4069
VFINAL-OVERALL
p4070
sVbackground
p4071
V1
sVoverall1
p4072
V1
sVoverall3
p4073
V4
sVoverall2
p4074
V1
sVoverall4
p4075
V1
sa(dp4076
Vrt
p4077
I33484
sVc_id
p4078
I378
sVphase
p4079
VFINAL-OVERALL
p4080
sVbackground
p4081
V1
sVoverall1
p4082
V4
sVoverall3
p4083
V1
sVoverall2
p4084
V1
sVoverall4
p4085
V1
sa(dp4086
Vrt
p4087
I12837
sVc_id
p4088
I750
sVphase
p4089
VFINAL-OVERALL
p4090
sVbackground
p4091
V0
sVoverall1
p4092
V5
sVoverall3
p4093
V1
sVoverall2
p4094
V4
sVoverall4
p4095
V1
sa(dp4096
Vrt
p4097
I11278
sVc_id
p4098
I648
sVphase
p4099
VFINAL-OVERALL
p4100
sVbackground
p4101
V0
sVoverall1
p4102
V1
sVoverall3
p4103
V1
sVoverall2
p4104
V1
sVoverall4
p4105
V1
sa(dp4106
Vrt
p4107
I9179
sVc_id
p4108
I248
sVphase
p4109
VFINAL-OVERALL
p4110
sVbackground
p4111
V0
sVoverall1
p4112
V1
sVoverall3
p4113
V1
sVoverall2
p4114
V1
sVoverall4
p4115
V1
sa(dp4116
Vrt
p4117
I20466
sVc_id
p4118
I582
sVphase
p4119
VFINAL-OVERALL
p4120
sVbackground
p4121
V1
sVoverall1
p4122
V1
sVoverall3
p4123
V4
sVoverall2
p4124
V4
sVoverall4
p4125
V2
sa(dp4126
Vrt
p4127
I13169
sVc_id
p4128
I521
sVphase
p4129
VFINAL-OVERALL
p4130
sVbackground
p4131
V1
sVoverall1
p4132
V1
sVoverall3
p4133
V1
sVoverall2
p4134
V4
sVoverall4
p4135
V1
sa(dp4136
Vrt
p4137
I13270
sVc_id
p4138
I363
sVphase
p4139
VFINAL-OVERALL
p4140
sVbackground
p4141
V1
sVoverall1
p4142
V1
sVoverall3
p4143
V2
sVoverall2
p4144
V3
sVoverall4
p4145
V4
sasS'A1XUZFDVKP95VC:3ND9UOO81K377Q8MZZY7DGSAOIDWLC'
p4146
(lp4147
(dp4148
Vrt
p4149
I76300
sVc_id
p4150
I666
sVphase
p4151
VFINAL-OVERALL
p4152
sVbackground
p4153
V0
sVoverall1
p4154
V5
sVoverall3
p4155
V1
sVoverall2
p4156
V1
sVoverall4
p4157
V1
sa(dp4158
Vrt
p4159
I58228
sVc_id
p4160
I-4
sVphase
p4161
VFINAL-OVERALL
p4162
sVbackground
p4163
V1
sVoverall1
p4164
V5
sVoverall3
p4165
V1
sVoverall2
p4166
V5
sVoverall4
p4167
V1
sa(dp4168
Vrt
p4169
I45727
sVc_id
p4170
I315
sVphase
p4171
VFINAL-OVERALL
p4172
sVbackground
p4173
V1
sVoverall1
p4174
V3
sVoverall3
p4175
V1
sVoverall2
p4176
V1
sVoverall4
p4177
V1
sa(dp4178
Vrt
p4179
I75126
sVc_id
p4180
I458
sVphase
p4181
VFINAL-OVERALL
p4182
sVbackground
p4183
V1
sVoverall1
p4184
V1
sVoverall3
p4185
V1
sVoverall2
p4186
V4
sVoverall4
p4187
V1
sa(dp4188
Vrt
p4189
I25741
sVc_id
p4190
I150
sVphase
p4191
VFINAL-OVERALL
p4192
sVbackground
p4193
V0
sVoverall1
p4194
V3
sVoverall3
p4195
V1
sVoverall2
p4196
V1
sVoverall4
p4197
V1
sa(dp4198
Vrt
p4199
I58909
sVc_id
p4200
I259
sVphase
p4201
VFINAL-OVERALL
p4202
sVbackground
p4203
V1
sVoverall1
p4204
V1
sVoverall3
p4205
V1
sVoverall2
p4206
V1
sVoverall4
p4207
V5
sa(dp4208
Vrt
p4209
I23325
sVc_id
p4210
I686
sVphase
p4211
VFINAL-OVERALL
p4212
sVbackground
p4213
V1
sVoverall1
p4214
V5
sVoverall3
p4215
V1
sVoverall2
p4216
V3
sVoverall4
p4217
V1
sa(dp4218
Vrt
p4219
I15764
sVc_id
p4220
I134
sVphase
p4221
VFINAL-OVERALL
p4222
sVbackground
p4223
V1
sVoverall1
p4224
V1
sVoverall3
p4225
V1
sVoverall2
p4226
V1
sVoverall4
p4227
V1
sa(dp4228
Vrt
p4229
I26635
sVc_id
p4230
I452
sVphase
p4231
VFINAL-OVERALL
p4232
sVbackground
p4233
V1
sVoverall1
p4234
V1
sVoverall3
p4235
V1
sVoverall2
p4236
V1
sVoverall4
p4237
V5
sa(dp4238
Vrt
p4239
I23310
sVc_id
p4240
I76
sVphase
p4241
VFINAL-OVERALL
p4242
sVbackground
p4243
V1
sVoverall1
p4244
V1
sVoverall3
p4245
V1
sVoverall2
p4246
V5
sVoverall4
p4247
V1
sa(dp4248
Vrt
p4249
I27643
sVc_id
p4250
I875
sVphase
p4251
VFINAL-OVERALL
p4252
sVbackground
p4253
V1
sVoverall1
p4254
V3
sVoverall3
p4255
V1
sVoverall2
p4256
V3
sVoverall4
p4257
V1
sa(dp4258
Vrt
p4259
I70760
sVc_id
p4260
I983
sVphase
p4261
VFINAL-OVERALL
p4262
sVbackground
p4263
V1
sVoverall1
p4264
V2
sVoverall3
p4265
V5
sVoverall2
p4266
V1
sVoverall4
p4267
V3
sa(dp4268
Vrt
p4269
I19288
sVc_id
p4270
I787
sVphase
p4271
VFINAL-OVERALL
p4272
sVbackground
p4273
V1
sVoverall1
p4274
V1
sVoverall3
p4275
V1
sVoverall2
p4276
V5
sVoverall4
p4277
V1
sa(dp4278
Vrt
p4279
I22123
sVc_id
p4280
I589
sVphase
p4281
VFINAL-OVERALL
p4282
sVbackground
p4283
V1
sVoverall1
p4284
V1
sVoverall3
p4285
V5
sVoverall2
p4286
V1
sVoverall4
p4287
V1
sa(dp4288
Vrt
p4289
I75084
sVc_id
p4290
I247
sVphase
p4291
VFINAL-OVERALL
p4292
sVbackground
p4293
V1
sVoverall1
p4294
V1
sVoverall3
p4295
V5
sVoverall2
p4296
V1
sVoverall4
p4297
V1
sa(dp4298
Vrt
p4299
I12430
sVc_id
p4300
I-3
sVphase
p4301
VFINAL-OVERALL
p4302
sVbackground
p4303
V1
sVoverall1
p4304
V5
sVoverall3
p4305
V1
sVoverall2
p4306
V5
sVoverall4
p4307
V1
sa(dp4308
Vrt
p4309
I17636
sVc_id
p4310
I828
sVphase
p4311
VFINAL-OVERALL
p4312
sVbackground
p4313
V1
sVoverall1
p4314
V1
sVoverall3
p4315
V1
sVoverall2
p4316
V1
sVoverall4
p4317
V5
sa(dp4318
Vrt
p4319
I25881
sVc_id
p4320
I40
sVphase
p4321
VFINAL-OVERALL
p4322
sVbackground
p4323
V1
sVoverall1
p4324
V1
sVoverall3
p4325
V2
sVoverall2
p4326
V5
sVoverall4
p4327
V1
sa(dp4328
Vrt
p4329
I59046
sVc_id
p4330
I899
sVphase
p4331
VFINAL-OVERALL
p4332
sVbackground
p4333
V1
sVoverall1
p4334
V5
sVoverall3
p4335
V1
sVoverall2
p4336
V1
sVoverall4
p4337
V1
sa(dp4338
Vrt
p4339
I18731
sVc_id
p4340
I429
sVphase
p4341
VFINAL-OVERALL
p4342
sVbackground
p4343
V1
sVoverall1
p4344
V1
sVoverall3
p4345
V1
sVoverall2
p4346
V5
sVoverall4
p4347
V1
sa(dp4348
Vrt
p4349
I32427
sVc_id
p4350
I506
sVphase
p4351
VFINAL-OVERALL
p4352
sVbackground
p4353
V0
sVoverall1
p4354
V1
sVoverall3
p4355
V1
sVoverall2
p4356
V1
sVoverall4
p4357
V1
sa(dp4358
Vrt
p4359
I26512
sVc_id
p4360
I717
sVphase
p4361
VFINAL-OVERALL
p4362
sVbackground
p4363
V1
sVoverall1
p4364
V1
sVoverall3
p4365
V4
sVoverall2
p4366
V5
sVoverall4
p4367
V1
sa(dp4368
Vrt
p4369
I41614
sVc_id
p4370
I207
sVphase
p4371
VFINAL-OVERALL
p4372
sVbackground
p4373
V1
sVoverall1
p4374
V5
sVoverall3
p4375
V5
sVoverall2
p4376
V1
sVoverall4
p4377
V1
sa(dp4378
Vrt
p4379
I19707
sVc_id
p4380
I236
sVphase
p4381
VFINAL-OVERALL
p4382
sVbackground
p4383
V1
sVoverall1
p4384
V1
sVoverall3
p4385
V1
sVoverall2
p4386
V1
sVoverall4
p4387
V1
sa(dp4388
Vrt
p4389
I48414
sVc_id
p4390
I204
sVphase
p4391
VFINAL-OVERALL
p4392
sVbackground
p4393
V0
sVoverall1
p4394
V1
sVoverall3
p4395
V4
sVoverall2
p4396
V2
sVoverall4
p4397
V1
sa(dp4398
Vrt
p4399
I28813
sVc_id
p4400
I848
sVphase
p4401
VFINAL-OVERALL
p4402
sVbackground
p4403
V1
sVoverall1
p4404
V1
sVoverall3
p4405
V5
sVoverall2
p4406
V3
sVoverall4
p4407
V1
sa(dp4408
Vrt
p4409
I38624
sVc_id
p4410
I56
sVphase
p4411
VFINAL-OVERALL
p4412
sVbackground
p4413
V1
sVoverall1
p4414
V1
sVoverall3
p4415
V5
sVoverall2
p4416
V1
sVoverall4
p4417
V2
sa(dp4418
Vrt
p4419
I30008
sVc_id
p4420
I935
sVphase
p4421
VFINAL-OVERALL
p4422
sVbackground
p4423
V0
sVoverall1
p4424
V3
sVoverall3
p4425
V1
sVoverall2
p4426
V3
sVoverall4
p4427
V1
sa(dp4428
Vrt
p4429
I42550
sVc_id
p4430
I261
sVphase
p4431
VFINAL-OVERALL
p4432
sVbackground
p4433
V0
sVoverall1
p4434
V1
sVoverall3
p4435
V1
sVoverall2
p4436
V4
sVoverall4
p4437
V1
sa(dp4438
Vrt
p4439
I15129
sVc_id
p4440
I976
sVphase
p4441
VFINAL-OVERALL
p4442
sVbackground
p4443
V1
sVoverall1
p4444
V5
sVoverall3
p4445
V5
sVoverall2
p4446
V1
sVoverall4
p4447
V1
sa(dp4448
Vrt
p4449
I29336
sVc_id
p4450
I682
sVphase
p4451
VFINAL-OVERALL
p4452
sVbackground
p4453
V1
sVoverall1
p4454
V1
sVoverall3
p4455
V3
sVoverall2
p4456
V1
sVoverall4
p4457
V1
sa(dp4458
Vrt
p4459
I54456
sVc_id
p4460
I628
sVphase
p4461
VFINAL-OVERALL
p4462
sVbackground
p4463
V1
sVoverall1
p4464
V1
sVoverall3
p4465
V3
sVoverall2
p4466
V5
sVoverall4
p4467
V2
sa(dp4468
Vrt
p4469
I12866
sVc_id
p4470
I-1
sVphase
p4471
VFINAL-OVERALL
p4472
sVbackground
p4473
V1
sVoverall1
p4474
V5
sVoverall3
p4475
V1
sVoverall2
p4476
V5
sVoverall4
p4477
V1
sa(dp4478
Vrt
p4479
I12763
sVc_id
p4480
I600
sVphase
p4481
VFINAL-OVERALL
p4482
sVbackground
p4483
V0
sVoverall1
p4484
V1
sVoverall3
p4485
V1
sVoverall2
p4486
V1
sVoverall4
p4487
V1
sa(dp4488
Vrt
p4489
I20730
sVc_id
p4490
I180
sVphase
p4491
VFINAL-OVERALL
p4492
sVbackground
p4493
V1
sVoverall1
p4494
V1
sVoverall3
p4495
V1
sVoverall2
p4496
V5
sVoverall4
p4497
V1
sa(dp4498
Vrt
p4499
I47796
sVc_id
p4500
I609
sVphase
p4501
VFINAL-OVERALL
p4502
sVbackground
p4503
V1
sVoverall1
p4504
V3
sVoverall3
p4505
V4
sVoverall2
p4506
V5
sVoverall4
p4507
V5
sa(dp4508
Vrt
p4509
I19210
sVc_id
p4510
I829
sVphase
p4511
VFINAL-OVERALL
p4512
sVbackground
p4513
V1
sVoverall1
p4514
V1
sVoverall3
p4515
V1
sVoverall2
p4516
V1
sVoverall4
p4517
V5
sa(dp4518
Vrt
p4519
I36861
sVc_id
p4520
I380
sVphase
p4521
VFINAL-OVERALL
p4522
sVbackground
p4523
V1
sVoverall1
p4524
V2
sVoverall3
p4525
V4
sVoverall2
p4526
V1
sVoverall4
p4527
V2
sa(dp4528
Vrt
p4529
I45226
sVc_id
p4530
I267
sVphase
p4531
VFINAL-OVERALL
p4532
sVbackground
p4533
V1
sVoverall1
p4534
V5
sVoverall3
p4535
V1
sVoverall2
p4536
V1
sVoverall4
p4537
V1
sa(dp4538
Vrt
p4539
I17103
sVc_id
p4540
I662
sVphase
p4541
VFINAL-OVERALL
p4542
sVbackground
p4543
V1
sVoverall1
p4544
V1
sVoverall3
p4545
V1
sVoverall2
p4546
V5
sVoverall4
p4547
V1
sa(dp4548
Vrt
p4549
I52487
sVc_id
p4550
I132
sVphase
p4551
VFINAL-OVERALL
p4552
sVbackground
p4553
V0
sVoverall1
p4554
V3
sVoverall3
p4555
V1
sVoverall2
p4556
V2
sVoverall4
p4557
V1
sa(dp4558
Vrt
p4559
I52500
sVc_id
p4560
I114
sVphase
p4561
VFINAL-OVERALL
p4562
sVbackground
p4563
V1
sVoverall1
p4564
V1
sVoverall3
p4565
V1
sVoverall2
p4566
V1
sVoverall4
p4567
V5
sa(dp4568
Vrt
p4569
I37948
sVc_id
p4570
I785
sVphase
p4571
VFINAL-OVERALL
p4572
sVbackground
p4573
V1
sVoverall1
p4574
V3
sVoverall3
p4575
V2
sVoverall2
p4576
V5
sVoverall4
p4577
V1
sa(dp4578
Vrt
p4579
I24635
sVc_id
p4580
I616
sVphase
p4581
VFINAL-OVERALL
p4582
sVbackground
p4583
V1
sVoverall1
p4584
V1
sVoverall3
p4585
V5
sVoverall2
p4586
V1
sVoverall4
p4587
V2
sa(dp4588
Vrt
p4589
I40772
sVc_id
p4590
I880
sVphase
p4591
VFINAL-OVERALL
p4592
sVbackground
p4593
V1
sVoverall1
p4594
V1
sVoverall3
p4595
V4
sVoverall2
p4596
V1
sVoverall4
p4597
V1
sa(dp4598
Vrt
p4599
I16731
sVc_id
p4600
I-2
sVphase
p4601
VFINAL-OVERALL
p4602
sVbackground
p4603
V1
sVoverall1
p4604
V5
sVoverall3
p4605
V1
sVoverall2
p4606
V5
sVoverall4
p4607
V1
sa(dp4608
Vrt
p4609
I27615
sVc_id
p4610
I152
sVphase
p4611
VFINAL-OVERALL
p4612
sVbackground
p4613
V1
sVoverall1
p4614
V4
sVoverall3
p4615
V1
sVoverall2
p4616
V1
sVoverall4
p4617
V1
sa(dp4618
Vrt
p4619
I29420
sVc_id
p4620
I171
sVphase
p4621
VFINAL-OVERALL
p4622
sVbackground
p4623
V1
sVoverall1
p4624
V1
sVoverall3
p4625
V1
sVoverall2
p4626
V1
sVoverall4
p4627
V4
sa(dp4628
Vrt
p4629
I22004
sVc_id
p4630
I461
sVphase
p4631
VFINAL-OVERALL
p4632
sVbackground
p4633
V1
sVoverall1
p4634
V2
sVoverall3
p4635
V1
sVoverall2
p4636
V1
sVoverall4
p4637
V1
sa(dp4638
Vrt
p4639
I26405
sVc_id
p4640
I10
sVphase
p4641
VFINAL-OVERALL
p4642
sVbackground
p4643
V0
sVoverall1
p4644
V1
sVoverall3
p4645
V3
sVoverall2
p4646
V5
sVoverall4
p4647
V1
sa(dp4648
Vrt
p4649
I23133
sVc_id
p4650
I316
sVphase
p4651
VFINAL-OVERALL
p4652
sVbackground
p4653
V1
sVoverall1
p4654
V5
sVoverall3
p4655
V1
sVoverall2
p4656
V1
sVoverall4
p4657
V1
sa(dp4658
Vrt
p4659
I25782
sVc_id
p4660
I574
sVphase
p4661
VFINAL-OVERALL
p4662
sVbackground
p4663
V1
sVoverall1
p4664
V1
sVoverall3
p4665
V1
sVoverall2
p4666
V1
sVoverall4
p4667
V1
sa(dp4668
Vrt
p4669
I77368
sVc_id
p4670
I791
sVphase
p4671
VFINAL-OVERALL
p4672
sVbackground
p4673
V1
sVoverall1
p4674
V3
sVoverall3
p4675
V1
sVoverall2
p4676
V1
sVoverall4
p4677
V3
sa(dp4678
Vrt
p4679
I35320
sVc_id
p4680
I188
sVphase
p4681
VFINAL-OVERALL
p4682
sVbackground
p4683
V1
sVoverall1
p4684
V1
sVoverall3
p4685
V2
sVoverall2
p4686
V5
sVoverall4
p4687
V2
sa(dp4688
Vrt
p4689
I26823
sVc_id
p4690
I854
sVphase
p4691
VFINAL-OVERALL
p4692
sVbackground
p4693
V1
sVoverall1
p4694
V1
sVoverall3
p4695
V1
sVoverall2
p4696
V4
sVoverall4
p4697
V1
sa(dp4698
Vrt
p4699
I14500
sVc_id
p4700
I212
sVphase
p4701
VFINAL-OVERALL
p4702
sVbackground
p4703
V1
sVoverall1
p4704
V1
sVoverall3
p4705
V1
sVoverall2
p4706
V5
sVoverall4
p4707
V1
sa(dp4708
Vrt
p4709
I13679
sVc_id
p4710
I683
sVphase
p4711
VFINAL-OVERALL
p4712
sVbackground
p4713
V1
sVoverall1
p4714
V1
sVoverall3
p4715
V1
sVoverall2
p4716
V1
sVoverall4
p4717
V5
sa(dp4718
Vrt
p4719
I41045
sVc_id
p4720
I472
sVphase
p4721
VFINAL-OVERALL
p4722
sVbackground
p4723
V0
sVoverall1
p4724
V1
sVoverall3
p4725
V3
sVoverall2
p4726
V3
sVoverall4
p4727
V2
sa(dp4728
Vrt
p4729
I20700
sVc_id
p4730
I620
sVphase
p4731
VFINAL-OVERALL
p4732
sVbackground
p4733
V1
sVoverall1
p4734
V5
sVoverall3
p4735
V1
sVoverall2
p4736
V1
sVoverall4
p4737
V1
sasS'AMDX0UNZS4A1G:34FNN24DCMAXU601MD0OHOHTD2B5YY'
p4738
(lp4739
(dp4740
Vrt
p4741
I47051
sVc_id
p4742
I362
sVphase
p4743
VFINAL-OVERALL
p4744
sVbackground
p4745
V1
sVoverall1
p4746
V5
sVoverall3
p4747
V2
sVoverall2
p4748
V5
sVoverall4
p4749
V3
sa(dp4750
Vrt
p4751
I22478
sVc_id
p4752
I-2
sVphase
p4753
VFINAL-OVERALL
p4754
sVbackground
p4755
V1
sVoverall1
p4756
V5
sVoverall3
p4757
V1
sVoverall2
p4758
V5
sVoverall4
p4759
V1
sa(dp4760
Vrt
p4761
I38924
sVc_id
p4762
I655
sVphase
p4763
VFINAL-OVERALL
p4764
sVbackground
p4765
V1
sVoverall1
p4766
V5
sVoverall3
p4767
V1
sVoverall2
p4768
V1
sVoverall4
p4769
V1
sa(dp4770
Vrt
p4771
I30608
sVc_id
p4772
I340
sVphase
p4773
VFINAL-OVERALL
p4774
sVbackground
p4775
V0
sVoverall1
p4776
V1
sVoverall3
p4777
V5
sVoverall2
p4778
V1
sVoverall4
p4779
V1
sa(dp4780
Vrt
p4781
I18077
sVc_id
p4782
I806
sVphase
p4783
VFINAL-OVERALL
p4784
sVbackground
p4785
V1
sVoverall1
p4786
V5
sVoverall3
p4787
V3
sVoverall2
p4788
V1
sVoverall4
p4789
V1
sa(dp4790
Vrt
p4791
I19332
sVc_id
p4792
I95
sVphase
p4793
VFINAL-OVERALL
p4794
sVbackground
p4795
V1
sVoverall1
p4796
V1
sVoverall3
p4797
V4
sVoverall2
p4798
V1
sVoverall4
p4799
V1
sa(dp4800
Vrt
p4801
I25885
sVc_id
p4802
I976
sVphase
p4803
VFINAL-OVERALL
p4804
sVbackground
p4805
V1
sVoverall1
p4806
V3
sVoverall3
p4807
V5
sVoverall2
p4808
V1
sVoverall4
p4809
V1
sa(dp4810
Vrt
p4811
I17032
sVc_id
p4812
I329
sVphase
p4813
VFINAL-OVERALL
p4814
sVbackground
p4815
V1
sVoverall1
p4816
V1
sVoverall3
p4817
V4
sVoverall2
p4818
V1
sVoverall4
p4819
V1
sa(dp4820
Vrt
p4821
I15516
sVc_id
p4822
I-3
sVphase
p4823
VFINAL-OVERALL
p4824
sVbackground
p4825
V1
sVoverall1
p4826
V5
sVoverall3
p4827
V1
sVoverall2
p4828
V5
sVoverall4
p4829
V1
sa(dp4830
Vrt
p4831
I17140
sVc_id
p4832
I517
sVphase
p4833
VFINAL-OVERALL
p4834
sVbackground
p4835
V1
sVoverall1
p4836
V1
sVoverall3
p4837
V5
sVoverall2
p4838
V1
sVoverall4
p4839
V3
sa(dp4840
Vrt
p4841
I28096
sVc_id
p4842
I386
sVphase
p4843
VFINAL-OVERALL
p4844
sVbackground
p4845
V0
sVoverall1
p4846
V1
sVoverall3
p4847
V1
sVoverall2
p4848
V1
sVoverall4
p4849
V1
sa(dp4850
Vrt
p4851
I20668
sVc_id
p4852
I212
sVphase
p4853
VFINAL-OVERALL
p4854
sVbackground
p4855
V0
sVoverall1
p4856
V1
sVoverall3
p4857
V1
sVoverall2
p4858
V1
sVoverall4
p4859
V1
sa(dp4860
Vrt
p4861
I33213
sVc_id
p4862
I73
sVphase
p4863
VFINAL-OVERALL
p4864
sVbackground
p4865
V1
sVoverall1
p4866
V1
sVoverall3
p4867
V5
sVoverall2
p4868
V1
sVoverall4
p4869
V1
sa(dp4870
Vrt
p4871
I23408
sVc_id
p4872
I375
sVphase
p4873
VFINAL-OVERALL
p4874
sVbackground
p4875
V0
sVoverall1
p4876
V4
sVoverall3
p4877
V1
sVoverall2
p4878
V1
sVoverall4
p4879
V1
sa(dp4880
Vrt
p4881
I21129
sVc_id
p4882
I322
sVphase
p4883
VFINAL-OVERALL
p4884
sVbackground
p4885
V1
sVoverall1
p4886
V1
sVoverall3
p4887
V1
sVoverall2
p4888
V5
sVoverall4
p4889
V1
sa(dp4890
Vrt
p4891
I23636
sVc_id
p4892
I418
sVphase
p4893
VFINAL-OVERALL
p4894
sVbackground
p4895
V0
sVoverall1
p4896
V1
sVoverall3
p4897
V1
sVoverall2
p4898
V1
sVoverall4
p4899
V1
sa(dp4900
Vrt
p4901
I58392
sVc_id
p4902
I564
sVphase
p4903
VFINAL-OVERALL
p4904
sVbackground
p4905
V0
sVoverall1
p4906
V1
sVoverall3
p4907
V1
sVoverall2
p4908
V3
sVoverall4
p4909
V1
sa(dp4910
Vrt
p4911
I25442
sVc_id
p4912
I586
sVphase
p4913
VFINAL-OVERALL
p4914
sVbackground
p4915
V1
sVoverall1
p4916
V1
sVoverall3
p4917
V1
sVoverall2
p4918
V1
sVoverall4
p4919
V1
sa(dp4920
Vrt
p4921
I34637
sVc_id
p4922
I54
sVphase
p4923
VFINAL-OVERALL
p4924
sVbackground
p4925
V0
sVoverall1
p4926
V5
sVoverall3
p4927
V1
sVoverall2
p4928
V4
sVoverall4
p4929
V1
sa(dp4930
Vrt
p4931
I13365
sVc_id
p4932
I-4
sVphase
p4933
VFINAL-OVERALL
p4934
sVbackground
p4935
V1
sVoverall1
p4936
V5
sVoverall3
p4937
V1
sVoverall2
p4938
V5
sVoverall4
p4939
V1
sa(dp4940
Vrt
p4941
I212931
sVc_id
p4942
I832
sVphase
p4943
VFINAL-OVERALL
p4944
sVbackground
p4945
V1
sVoverall1
p4946
V1
sVoverall3
p4947
V1
sVoverall2
p4948
V1
sVoverall4
p4949
V1
sa(dp4950
Vrt
p4951
I23695
sVc_id
p4952
I814
sVphase
p4953
VFINAL-OVERALL
p4954
sVbackground
p4955
V1
sVoverall1
p4956
V4
sVoverall3
p4957
V1
sVoverall2
p4958
V1
sVoverall4
p4959
V1
sa(dp4960
Vrt
p4961
I25699
sVc_id
p4962
I556
sVphase
p4963
VFINAL-OVERALL
p4964
sVbackground
p4965
V1
sVoverall1
p4966
V1
sVoverall3
p4967
V1
sVoverall2
p4968
V1
sVoverall4
p4969
V5
sa(dp4970
Vrt
p4971
I167521
sVc_id
p4972
I327
sVphase
p4973
VFINAL-OVERALL
p4974
sVbackground
p4975
V1
sVoverall1
p4976
V1
sVoverall3
p4977
V1
sVoverall2
p4978
V1
sVoverall4
p4979
V3
sa(dp4980
Vrt
p4981
I26462
sVc_id
p4982
I380
sVphase
p4983
VFINAL-OVERALL
p4984
sVbackground
p4985
V1
sVoverall1
p4986
V1
sVoverall3
p4987
V1
sVoverall2
p4988
V1
sVoverall4
p4989
V1
sa(dp4990
Vrt
p4991
I850951
sVc_id
p4992
I721
sVphase
p4993
VFINAL-OVERALL
p4994
sVbackground
p4995
V1
sVoverall1
p4996
V3
sVoverall3
p4997
V1
sVoverall2
p4998
V1
sVoverall4
p4999
V2
sa(dp5000
Vrt
p5001
I31687
sVc_id
p5002
I951
sVphase
p5003
VFINAL-OVERALL
p5004
sVbackground
p5005
V0
sVoverall1
p5006
V3
sVoverall3
p5007
V1
sVoverall2
p5008
V1
sVoverall4
p5009
V1
sa(dp5010
Vrt
p5011
I134500
sVc_id
p5012
I202
sVphase
p5013
VFINAL-OVERALL
p5014
sVbackground
p5015
V0
sVoverall1
p5016
V1
sVoverall3
p5017
V1
sVoverall2
p5018
V5
sVoverall4
p5019
V1
sa(dp5020
Vrt
p5021
I17805
sVc_id
p5022
I732
sVphase
p5023
VFINAL-OVERALL
p5024
sVbackground
p5025
V1
sVoverall1
p5026
V1
sVoverall3
p5027
V4
sVoverall2
p5028
V1
sVoverall4
p5029
V1
sa(dp5030
Vrt
p5031
I17209
sVc_id
p5032
I282
sVphase
p5033
VFINAL-OVERALL
p5034
sVbackground
p5035
V0
sVoverall1
p5036
V4
sVoverall3
p5037
V3
sVoverall2
p5038
V1
sVoverall4
p5039
V1
sa(dp5040
Vrt
p5041
I32638
sVc_id
p5042
I431
sVphase
p5043
VFINAL-OVERALL
p5044
sVbackground
p5045
V1
sVoverall1
p5046
V5
sVoverall3
p5047
V5
sVoverall2
p5048
V1
sVoverall4
p5049
V3
sa(dp5050
Vrt
p5051
I22320
sVc_id
p5052
I602
sVphase
p5053
VFINAL-OVERALL
p5054
sVbackground
p5055
V1
sVoverall1
p5056
V1
sVoverall3
p5057
V3
sVoverall2
p5058
V1
sVoverall4
p5059
V1
sa(dp5060
Vrt
p5061
I20434
sVc_id
p5062
I971
sVphase
p5063
VFINAL-OVERALL
p5064
sVbackground
p5065
V1
sVoverall1
p5066
V5
sVoverall3
p5067
V1
sVoverall2
p5068
V1
sVoverall4
p5069
V1
sa(dp5070
Vrt
p5071
I16695
sVc_id
p5072
I325
sVphase
p5073
VFINAL-OVERALL
p5074
sVbackground
p5075
V0
sVoverall1
p5076
V1
sVoverall3
p5077
V1
sVoverall2
p5078
V1
sVoverall4
p5079
V1
sa(dp5080
Vrt
p5081
I15796
sVc_id
p5082
I399
sVphase
p5083
VFINAL-OVERALL
p5084
sVbackground
p5085
V1
sVoverall1
p5086
V1
sVoverall3
p5087
V5
sVoverall2
p5088
V5
sVoverall4
p5089
V1
sa(dp5090
Vrt
p5091
I15797
sVc_id
p5092
I834
sVphase
p5093
VFINAL-OVERALL
p5094
sVbackground
p5095
V1
sVoverall1
p5096
V1
sVoverall3
p5097
V1
sVoverall2
p5098
V5
sVoverall4
p5099
V1
sa(dp5100
Vrt
p5101
I13886
sVc_id
p5102
I330
sVphase
p5103
VFINAL-OVERALL
p5104
sVbackground
p5105
V1
sVoverall1
p5106
V1
sVoverall3
p5107
V1
sVoverall2
p5108
V3
sVoverall4
p5109
V5
sa(dp5110
Vrt
p5111
I34136
sVc_id
p5112
I527
sVphase
p5113
VFINAL-OVERALL
p5114
sVbackground
p5115
V1
sVoverall1
p5116
V1
sVoverall3
p5117
V3
sVoverall2
p5118
V3
sVoverall4
p5119
V1
sa(dp5120
Vrt
p5121
I19358
sVc_id
p5122
I554
sVphase
p5123
VFINAL-OVERALL
p5124
sVbackground
p5125
V1
sVoverall1
p5126
V1
sVoverall3
p5127
V5
sVoverall2
p5128
V5
sVoverall4
p5129
V1
sa(dp5130
Vrt
p5131
I19014
sVc_id
p5132
I474
sVphase
p5133
VFINAL-OVERALL
p5134
sVbackground
p5135
V0
sVoverall1
p5136
V1
sVoverall3
p5137
V1
sVoverall2
p5138
V1
sVoverall4
p5139
V1
sa(dp5140
Vrt
p5141
I21743
sVc_id
p5142
I898
sVphase
p5143
VFINAL-OVERALL
p5144
sVbackground
p5145
V1
sVoverall1
p5146
V1
sVoverall3
p5147
V4
sVoverall2
p5148
V1
sVoverall4
p5149
V1
sa(dp5150
Vrt
p5151
I15824
sVc_id
p5152
I605
sVphase
p5153
VFINAL-OVERALL
p5154
sVbackground
p5155
V0
sVoverall1
p5156
V1
sVoverall3
p5157
V1
sVoverall2
p5158
V1
sVoverall4
p5159
V1
sa(dp5160
Vrt
p5161
I53723
sVc_id
p5162
I574
sVphase
p5163
VFINAL-OVERALL
p5164
sVbackground
p5165
V1
sVoverall1
p5166
V4
sVoverall3
p5167
V1
sVoverall2
p5168
V1
sVoverall4
p5169
V1
sa(dp5170
Vrt
p5171
I32509
sVc_id
p5172
I956
sVphase
p5173
VFINAL-OVERALL
p5174
sVbackground
p5175
V1
sVoverall1
p5176
V1
sVoverall3
p5177
V1
sVoverall2
p5178
V1
sVoverall4
p5179
V1
sa(dp5180
Vrt
p5181
I20514
sVc_id
p5182
I689
sVphase
p5183
VFINAL-OVERALL
p5184
sVbackground
p5185
V1
sVoverall1
p5186
V1
sVoverall3
p5187
V5
sVoverall2
p5188
V1
sVoverall4
p5189
V5
sa(dp5190
Vrt
p5191
I17294
sVc_id
p5192
I344
sVphase
p5193
VFINAL-OVERALL
p5194
sVbackground
p5195
V1
sVoverall1
p5196
V5
sVoverall3
p5197
V1
sVoverall2
p5198
V1
sVoverall4
p5199
V5
sa(dp5200
Vrt
p5201
I26303
sVc_id
p5202
I530
sVphase
p5203
VFINAL-OVERALL
p5204
sVbackground
p5205
V1
sVoverall1
p5206
V1
sVoverall3
p5207
V1
sVoverall2
p5208
V1
sVoverall4
p5209
V5
sa(dp5210
Vrt
p5211
I24894
sVc_id
p5212
I467
sVphase
p5213
VFINAL-OVERALL
p5214
sVbackground
p5215
V1
sVoverall1
p5216
V1
sVoverall3
p5217
V1
sVoverall2
p5218
V5
sVoverall4
p5219
V1
sa(dp5220
Vrt
p5221
I22844
sVc_id
p5222
I320
sVphase
p5223
VFINAL-OVERALL
p5224
sVbackground
p5225
V1
sVoverall1
p5226
V5
sVoverall3
p5227
V1
sVoverall2
p5228
V1
sVoverall4
p5229
V4
sa(dp5230
Vrt
p5231
I59149
sVc_id
p5232
I84
sVphase
p5233
VFINAL-OVERALL
p5234
sVbackground
p5235
V0
sVoverall1
p5236
V1
sVoverall3
p5237
V1
sVoverall2
p5238
V1
sVoverall4
p5239
V1
sa(dp5240
Vrt
p5241
I20842
sVc_id
p5242
I355
sVphase
p5243
VFINAL-OVERALL
p5244
sVbackground
p5245
V1
sVoverall1
p5246
V1
sVoverall3
p5247
V1
sVoverall2
p5248
V1
sVoverall4
p5249
V1
sa(dp5250
Vrt
p5251
I22348
sVc_id
p5252
I18
sVphase
p5253
VFINAL-OVERALL
p5254
sVbackground
p5255
V1
sVoverall1
p5256
V5
sVoverall3
p5257
V1
sVoverall2
p5258
V2
sVoverall4
p5259
V1
sa(dp5260
Vrt
p5261
I25032
sVc_id
p5262
I121
sVphase
p5263
VFINAL-OVERALL
p5264
sVbackground
p5265
V1
sVoverall1
p5266
V5
sVoverall3
p5267
V1
sVoverall2
p5268
V1
sVoverall4
p5269
V5
sa(dp5270
Vrt
p5271
I21152
sVc_id
p5272
I420
sVphase
p5273
VFINAL-OVERALL
p5274
sVbackground
p5275
V1
sVoverall1
p5276
V5
sVoverall3
p5277
V1
sVoverall2
p5278
V2
sVoverall4
p5279
V5
sa(dp5280
Vrt
p5281
I15546
sVc_id
p5282
I136
sVphase
p5283
VFINAL-OVERALL
p5284
sVbackground
p5285
V0
sVoverall1
p5286
V1
sVoverall3
p5287
V1
sVoverall2
p5288
V5
sVoverall4
p5289
V1
sa(dp5290
Vrt
p5291
I12999
sVc_id
p5292
I-1
sVphase
p5293
VFINAL-OVERALL
p5294
sVbackground
p5295
V1
sVoverall1
p5296
V5
sVoverall3
p5297
V1
sVoverall2
p5298
V5
sVoverall4
p5299
V1
sa(dp5300
Vrt
p5301
I32342
sVc_id
p5302
I259
sVphase
p5303
VFINAL-OVERALL
p5304
sVbackground
p5305
V1
sVoverall1
p5306
V1
sVoverall3
p5307
V4
sVoverall2
p5308
V1
sVoverall4
p5309
V2
sa(dp5310
Vrt
p5311
I17680
sVc_id
p5312
I775
sVphase
p5313
VFINAL-OVERALL
p5314
sVbackground
p5315
V1
sVoverall1
p5316
V5
sVoverall3
p5317
V2
sVoverall2
p5318
V3
sVoverall4
p5319
V1
sa(dp5320
Vrt
p5321
I22935
sVc_id
p5322
I789
sVphase
p5323
VFINAL-OVERALL
p5324
sVbackground
p5325
V1
sVoverall1
p5326
V1
sVoverall3
p5327
V1
sVoverall2
p5328
V1
sVoverall4
p5329
V5
sasS'A3UIDRGBV9NJWR:35BLDD71I6YEXQPLOQKKZTKUWKBVZG'
p5330
(lp5331
(dp5332
Vrt
p5333
I74586
sVc_id
p5334
I159
sVphase
p5335
VFINAL-OVERALL
p5336
sVbackground
p5337
V1
sVoverall1
p5338
V1
sVoverall3
p5339
V5
sVoverall2
p5340
V5
sVoverall4
p5341
V1
sa(dp5342
Vrt
p5343
I49497
sVc_id
p5344
I798
sVphase
p5345
VFINAL-OVERALL
p5346
sVbackground
p5347
V1
sVoverall1
p5348
V5
sVoverall3
p5349
V1
sVoverall2
p5350
V1
sVoverall4
p5351
V3
sa(dp5352
Vrt
p5353
I40702
sVc_id
p5354
I957
sVphase
p5355
VFINAL-OVERALL
p5356
sVbackground
p5357
V1
sVoverall1
p5358
V1
sVoverall3
p5359
V3
sVoverall2
p5360
V1
sVoverall4
p5361
V3
sa(dp5362
Vrt
p5363
I31169
sVc_id
p5364
I953
sVphase
p5365
VFINAL-OVERALL
p5366
sVbackground
p5367
V0
sVoverall1
p5368
V1
sVoverall3
p5369
V1
sVoverall2
p5370
V1
sVoverall4
p5371
V2
sa(dp5372
Vrt
p5373
I41018
sVc_id
p5374
I510
sVphase
p5375
VFINAL-OVERALL
p5376
sVbackground
p5377
V1
sVoverall1
p5378
V5
sVoverall3
p5379
V1
sVoverall2
p5380
V1
sVoverall4
p5381
V1
sa(dp5382
Vrt
p5383
I15746
sVc_id
p5384
I354
sVphase
p5385
VFINAL-OVERALL
p5386
sVbackground
p5387
V1
sVoverall1
p5388
V5
sVoverall3
p5389
V1
sVoverall2
p5390
V1
sVoverall4
p5391
V1
sa(dp5392
Vrt
p5393
I20576
sVc_id
p5394
I109
sVphase
p5395
VFINAL-OVERALL
p5396
sVbackground
p5397
V1
sVoverall1
p5398
V1
sVoverall3
p5399
V5
sVoverall2
p5400
V2
sVoverall4
p5401
V5
sa(dp5402
Vrt
p5403
I13772
sVc_id
p5404
I-4
sVphase
p5405
VFINAL-OVERALL
p5406
sVbackground
p5407
V1
sVoverall1
p5408
V5
sVoverall3
p5409
V1
sVoverall2
p5410
V5
sVoverall4
p5411
V1
sa(dp5412
Vrt
p5413
I13421
sVc_id
p5414
I-3
sVphase
p5415
VFINAL-OVERALL
p5416
sVbackground
p5417
V1
sVoverall1
p5418
V5
sVoverall3
p5419
V1
sVoverall2
p5420
V5
sVoverall4
p5421
V1
sa(dp5422
Vrt
p5423
I36920
sVc_id
p5424
I663
sVphase
p5425
VFINAL-OVERALL
p5426
sVbackground
p5427
V0
sVoverall1
p5428
V1
sVoverall3
p5429
V1
sVoverall2
p5430
V1
sVoverall4
p5431
V1
sa(dp5432
Vrt
p5433
I33403
sVc_id
p5434
I552
sVphase
p5435
VFINAL-OVERALL
p5436
sVbackground
p5437
V1
sVoverall1
p5438
V1
sVoverall3
p5439
V1
sVoverall2
p5440
V3
sVoverall4
p5441
V1
sa(dp5442
Vrt
p5443
I17379
sVc_id
p5444
I98
sVphase
p5445
VFINAL-OVERALL
p5446
sVbackground
p5447
V1
sVoverall1
p5448
V1
sVoverall3
p5449
V1
sVoverall2
p5450
V1
sVoverall4
p5451
V5
sa(dp5452
Vrt
p5453
I24291
sVc_id
p5454
I380
sVphase
p5455
VFINAL-OVERALL
p5456
sVbackground
p5457
V1
sVoverall1
p5458
V1
sVoverall3
p5459
V5
sVoverall2
p5460
V1
sVoverall4
p5461
V1
sa(dp5462
Vrt
p5463
I16453
sVc_id
p5464
I656
sVphase
p5465
VFINAL-OVERALL
p5466
sVbackground
p5467
V1
sVoverall1
p5468
V1
sVoverall3
p5469
V1
sVoverall2
p5470
V3
sVoverall4
p5471
V5
sa(dp5472
Vrt
p5473
I28157
sVc_id
p5474
I90
sVphase
p5475
VFINAL-OVERALL
p5476
sVbackground
p5477
V1
sVoverall1
p5478
V1
sVoverall3
p5479
V1
sVoverall2
p5480
V3
sVoverall4
p5481
V5
sa(dp5482
Vrt
p5483
I13745
sVc_id
p5484
I88
sVphase
p5485
VFINAL-OVERALL
p5486
sVbackground
p5487
V1
sVoverall1
p5488
V1
sVoverall3
p5489
V1
sVoverall2
p5490
V1
sVoverall4
p5491
V3
sa(dp5492
Vrt
p5493
I14330
sVc_id
p5494
I127
sVphase
p5495
VFINAL-OVERALL
p5496
sVbackground
p5497
V1
sVoverall1
p5498
V3
sVoverall3
p5499
V5
sVoverall2
p5500
V1
sVoverall4
p5501
V3
sa(dp5502
Vrt
p5503
I17500
sVc_id
p5504
I952
sVphase
p5505
VFINAL-OVERALL
p5506
sVbackground
p5507
V1
sVoverall1
p5508
V1
sVoverall3
p5509
V1
sVoverall2
p5510
V1
sVoverall4
p5511
V4
sa(dp5512
Vrt
p5513
I20480
sVc_id
p5514
I462
sVphase
p5515
VFINAL-OVERALL
p5516
sVbackground
p5517
V1
sVoverall1
p5518
V5
sVoverall3
p5519
V5
sVoverall2
p5520
V1
sVoverall4
p5521
V1
sa(dp5522
Vrt
p5523
I38801
sVc_id
p5524
I175
sVphase
p5525
VFINAL-OVERALL
p5526
sVbackground
p5527
V1
sVoverall1
p5528
V5
sVoverall3
p5529
V1
sVoverall2
p5530
V1
sVoverall4
p5531
V1
sa(dp5532
Vrt
p5533
I16467
sVc_id
p5534
I718
sVphase
p5535
VFINAL-OVERALL
p5536
sVbackground
p5537
V1
sVoverall1
p5538
V1
sVoverall3
p5539
V1
sVoverall2
p5540
V1
sVoverall4
p5541
V5
sa(dp5542
Vrt
p5543
I14532
sVc_id
p5544
I454
sVphase
p5545
VFINAL-OVERALL
p5546
sVbackground
p5547
V1
sVoverall1
p5548
V5
sVoverall3
p5549
V1
sVoverall2
p5550
V1
sVoverall4
p5551
V5
sa(dp5552
Vrt
p5553
I14099
sVc_id
p5554
I615
sVphase
p5555
VFINAL-OVERALL
p5556
sVbackground
p5557
V1
sVoverall1
p5558
V1
sVoverall3
p5559
V1
sVoverall2
p5560
V5
sVoverall4
p5561
V1
sa(dp5562
Vrt
p5563
I14564
sVc_id
p5564
I193
sVphase
p5565
VFINAL-OVERALL
p5566
sVbackground
p5567
V1
sVoverall1
p5568
V1
sVoverall3
p5569
V1
sVoverall2
p5570
V1
sVoverall4
p5571
V1
sa(dp5572
Vrt
p5573
I14653
sVc_id
p5574
I293
sVphase
p5575
VFINAL-OVERALL
p5576
sVbackground
p5577
V1
sVoverall1
p5578
V1
sVoverall3
p5579
V1
sVoverall2
p5580
V5
sVoverall4
p5581
V1
sa(dp5582
Vrt
p5583
I35359
sVc_id
p5584
I157
sVphase
p5585
VFINAL-OVERALL
p5586
sVbackground
p5587
V1
sVoverall1
p5588
V5
sVoverall3
p5589
V5
sVoverall2
p5590
V1
sVoverall4
p5591
V1
sa(dp5592
Vrt
p5593
I15144
sVc_id
p5594
I78
sVphase
p5595
VFINAL-OVERALL
p5596
sVbackground
p5597
V1
sVoverall1
p5598
V5
sVoverall3
p5599
V1
sVoverall2
p5600
V1
sVoverall4
p5601
V2
sa(dp5602
Vrt
p5603
I13392
sVc_id
p5604
I-1
sVphase
p5605
VFINAL-OVERALL
p5606
sVbackground
p5607
V1
sVoverall1
p5608
V5
sVoverall3
p5609
V1
sVoverall2
p5610
V5
sVoverall4
p5611
V1
sa(dp5612
Vrt
p5613
I27641
sVc_id
p5614
I976
sVphase
p5615
VFINAL-OVERALL
p5616
sVbackground
p5617
V1
sVoverall1
p5618
V5
sVoverall3
p5619
V5
sVoverall2
p5620
V2
sVoverall4
p5621
V1
sa(dp5622
Vrt
p5623
I14134
sVc_id
p5624
I211
sVphase
p5625
VFINAL-OVERALL
p5626
sVbackground
p5627
V1
sVoverall1
p5628
V5
sVoverall3
p5629
V5
sVoverall2
p5630
V1
sVoverall4
p5631
V4
sa(dp5632
Vrt
p5633
I17597
sVc_id
p5634
I574
sVphase
p5635
VFINAL-OVERALL
p5636
sVbackground
p5637
V1
sVoverall1
p5638
V3
sVoverall3
p5639
V1
sVoverall2
p5640
V1
sVoverall4
p5641
V1
sa(dp5642
Vrt
p5643
I15441
sVc_id
p5644
I368
sVphase
p5645
VFINAL-OVERALL
p5646
sVbackground
p5647
V0
sVoverall1
p5648
V1
sVoverall3
p5649
V1
sVoverall2
p5650
V1
sVoverall4
p5651
V1
sa(dp5652
Vrt
p5653
I17759
sVc_id
p5654
I518
sVphase
p5655
VFINAL-OVERALL
p5656
sVbackground
p5657
V1
sVoverall1
p5658
V5
sVoverall3
p5659
V1
sVoverall2
p5660
V1
sVoverall4
p5661
V3
sa(dp5662
Vrt
p5663
I16458
sVc_id
p5664
I269
sVphase
p5665
VFINAL-OVERALL
p5666
sVbackground
p5667
V1
sVoverall1
p5668
V1
sVoverall3
p5669
V3
sVoverall2
p5670
V1
sVoverall4
p5671
V2
sa(dp5672
Vrt
p5673
I34245
sVc_id
p5674
I735
sVphase
p5675
VFINAL-OVERALL
p5676
sVbackground
p5677
V1
sVoverall1
p5678
V5
sVoverall3
p5679
V1
sVoverall2
p5680
V1
sVoverall4
p5681
V1
sa(dp5682
Vrt
p5683
I20667
sVc_id
p5684
I678
sVphase
p5685
VFINAL-OVERALL
p5686
sVbackground
p5687
V1
sVoverall1
p5688
V5
sVoverall3
p5689
V5
sVoverall2
p5690
V1
sVoverall4
p5691
V1
sa(dp5692
Vrt
p5693
I19410
sVc_id
p5694
I336
sVphase
p5695
VFINAL-OVERALL
p5696
sVbackground
p5697
V1
sVoverall1
p5698
V4
sVoverall3
p5699
V5
sVoverall2
p5700
V1
sVoverall4
p5701
V1
sa(dp5702
Vrt
p5703
I25296
sVc_id
p5704
I259
sVphase
p5705
VFINAL-OVERALL
p5706
sVbackground
p5707
V1
sVoverall1
p5708
V1
sVoverall3
p5709
V1
sVoverall2
p5710
V1
sVoverall4
p5711
V3
sa(dp5712
Vrt
p5713
I32839
sVc_id
p5714
I839
sVphase
p5715
VFINAL-OVERALL
p5716
sVbackground
p5717
V1
sVoverall1
p5718
V1
sVoverall3
p5719
V1
sVoverall2
p5720
V1
sVoverall4
p5721
V3
sa(dp5722
Vrt
p5723
I22160
sVc_id
p5724
I558
sVphase
p5725
VFINAL-OVERALL
p5726
sVbackground
p5727
V1
sVoverall1
p5728
V5
sVoverall3
p5729
V1
sVoverall2
p5730
V1
sVoverall4
p5731
V1
sa(dp5732
Vrt
p5733
I16322
sVc_id
p5734
I160
sVphase
p5735
VFINAL-OVERALL
p5736
sVbackground
p5737
V1
sVoverall1
p5738
V1
sVoverall3
p5739
V3
sVoverall2
p5740
V1
sVoverall4
p5741
V3
sa(dp5742
Vrt
p5743
I14471
sVc_id
p5744
I230
sVphase
p5745
VFINAL-OVERALL
p5746
sVbackground
p5747
V1
sVoverall1
p5748
V4
sVoverall3
p5749
V1
sVoverall2
p5750
V1
sVoverall4
p5751
V1
sa(dp5752
Vrt
p5753
I13148
sVc_id
p5754
I65
sVphase
p5755
VFINAL-OVERALL
p5756
sVbackground
p5757
V1
sVoverall1
p5758
V1
sVoverall3
p5759
V1
sVoverall2
p5760
V5
sVoverall4
p5761
V1
sa(dp5762
Vrt
p5763
I13063
sVc_id
p5764
I60
sVphase
p5765
VFINAL-OVERALL
p5766
sVbackground
p5767
V1
sVoverall1
p5768
V5
sVoverall3
p5769
V3
sVoverall2
p5770
V1
sVoverall4
p5771
V1
sa(dp5772
Vrt
p5773
I14743
sVc_id
p5774
I709
sVphase
p5775
VFINAL-OVERALL
p5776
sVbackground
p5777
V1
sVoverall1
p5778
V1
sVoverall3
p5779
V4
sVoverall2
p5780
V1
sVoverall4
p5781
V1
sa(dp5782
Vrt
p5783
I27240
sVc_id
p5784
I23
sVphase
p5785
VFINAL-OVERALL
p5786
sVbackground
p5787
V1
sVoverall1
p5788
V5
sVoverall3
p5789
V3
sVoverall2
p5790
V5
sVoverall4
p5791
V1
sa(dp5792
Vrt
p5793
I27828
sVc_id
p5794
I179
sVphase
p5795
VFINAL-OVERALL
p5796
sVbackground
p5797
V1
sVoverall1
p5798
V1
sVoverall3
p5799
V1
sVoverall2
p5800
V5
sVoverall4
p5801
V1
sa(dp5802
Vrt
p5803
I20262
sVc_id
p5804
I384
sVphase
p5805
VFINAL-OVERALL
p5806
sVbackground
p5807
V1
sVoverall1
p5808
V1
sVoverall3
p5809
V1
sVoverall2
p5810
V1
sVoverall4
p5811
V3
sa(dp5812
Vrt
p5813
I54114
sVc_id
p5814
I573
sVphase
p5815
VFINAL-OVERALL
p5816
sVbackground
p5817
V1
sVoverall1
p5818
V3
sVoverall3
p5819
V1
sVoverall2
p5820
V1
sVoverall4
p5821
V1
sa(dp5822
Vrt
p5823
I18680
sVc_id
p5824
I348
sVphase
p5825
VFINAL-OVERALL
p5826
sVbackground
p5827
V1
sVoverall1
p5828
V1
sVoverall3
p5829
V5
sVoverall2
p5830
V1
sVoverall4
p5831
V1
sa(dp5832
Vrt
p5833
I17957
sVc_id
p5834
I372
sVphase
p5835
VFINAL-OVERALL
p5836
sVbackground
p5837
V1
sVoverall1
p5838
V1
sVoverall3
p5839
V1
sVoverall2
p5840
V3
sVoverall4
p5841
V5
sa(dp5842
Vrt
p5843
I23909
sVc_id
p5844
I131
sVphase
p5845
VFINAL-OVERALL
p5846
sVbackground
p5847
V1
sVoverall1
p5848
V1
sVoverall3
p5849
V5
sVoverall2
p5850
V5
sVoverall4
p5851
V5
sa(dp5852
Vrt
p5853
I21022
sVc_id
p5854
I133
sVphase
p5855
VFINAL-OVERALL
p5856
sVbackground
p5857
V1
sVoverall1
p5858
V1
sVoverall3
p5859
V1
sVoverall2
p5860
V1
sVoverall4
p5861
V3
sa(dp5862
Vrt
p5863
I25324
sVc_id
p5864
I3
sVphase
p5865
VFINAL-OVERALL
p5866
sVbackground
p5867
V1
sVoverall1
p5868
V1
sVoverall3
p5869
V1
sVoverall2
p5870
V1
sVoverall4
p5871
V1
sa(dp5872
Vrt
p5873
I32902
sVc_id
p5874
I212
sVphase
p5875
VFINAL-OVERALL
p5876
sVbackground
p5877
V1
sVoverall1
p5878
V2
sVoverall3
p5879
V1
sVoverall2
p5880
V5
sVoverall4
p5881
V1
sa(dp5882
Vrt
p5883
I19409
sVc_id
p5884
I227
sVphase
p5885
VFINAL-OVERALL
p5886
sVbackground
p5887
V1
sVoverall1
p5888
V1
sVoverall3
p5889
V1
sVoverall2
p5890
V1
sVoverall4
p5891
V5
sa(dp5892
Vrt
p5893
I11615
sVc_id
p5894
I-2
sVphase
p5895
VFINAL-OVERALL
p5896
sVbackground
p5897
V1
sVoverall1
p5898
V5
sVoverall3
p5899
V1
sVoverall2
p5900
V5
sVoverall4
p5901
V1
sa(dp5902
Vrt
p5903
I28071
sVc_id
p5904
I522
sVphase
p5905
VFINAL-OVERALL
p5906
sVbackground
p5907
V0
sVoverall1
p5908
V1
sVoverall3
p5909
V3
sVoverall2
p5910
V3
sVoverall4
p5911
V1
sa(dp5912
Vrt
p5913
I10937
sVc_id
p5914
I13
sVphase
p5915
VFINAL-OVERALL
p5916
sVbackground
p5917
V0
sVoverall1
p5918
V1
sVoverall3
p5919
V1
sVoverall2
p5920
V1
sVoverall4
p5921
V1
sasS'AZGBKAM5JUV5A:3L0KT67Y8EHY08YCY9DWAZRLRKLYSR'
p5922
(lp5923
(dp5924
Vrt
p5925
I86290
sVc_id
p5926
I514
sVphase
p5927
VFINAL-OVERALL
p5928
sVbackground
p5929
V1
sVoverall1
p5930
V5
sVoverall3
p5931
V2
sVoverall2
p5932
V4
sVoverall4
p5933
V5
sa(dp5934
Vrt
p5935
I64840
sVc_id
p5936
I199
sVphase
p5937
VFINAL-OVERALL
p5938
sVbackground
p5939
V0
sVoverall1
p5940
V4
sVoverall3
p5941
V3
sVoverall2
p5942
V3
sVoverall4
p5943
V1
sa(dp5944
Vrt
p5945
I18959
sVc_id
p5946
I-3
sVphase
p5947
VFINAL-OVERALL
p5948
sVbackground
p5949
V1
sVoverall1
p5950
V5
sVoverall3
p5951
V1
sVoverall2
p5952
V5
sVoverall4
p5953
V1
sa(dp5954
Vrt
p5955
I96469
sVc_id
p5956
I147
sVphase
p5957
VFINAL-OVERALL
p5958
sVbackground
p5959
V1
sVoverall1
p5960
V3
sVoverall3
p5961
V1
sVoverall2
p5962
V1
sVoverall4
p5963
V5
sa(dp5964
Vrt
p5965
I24110
sVc_id
p5966
I408
sVphase
p5967
VFINAL-OVERALL
p5968
sVbackground
p5969
V1
sVoverall1
p5970
V1
sVoverall3
p5971
V3
sVoverall2
p5972
V5
sVoverall4
p5973
V2
sa(dp5974
Vrt
p5975
I25207
sVc_id
p5976
I234
sVphase
p5977
VFINAL-OVERALL
p5978
sVbackground
p5979
V1
sVoverall1
p5980
V1
sVoverall3
p5981
V5
sVoverall2
p5982
V5
sVoverall4
p5983
V2
sa(dp5984
Vrt
p5985
I28690
sVc_id
p5986
I255
sVphase
p5987
VFINAL-OVERALL
p5988
sVbackground
p5989
V1
sVoverall1
p5990
V3
sVoverall3
p5991
V5
sVoverall2
p5992
V4
sVoverall4
p5993
V1
sa(dp5994
Vrt
p5995
I32931
sVc_id
p5996
I417
sVphase
p5997
VFINAL-OVERALL
p5998
sVbackground
p5999
V1
sVoverall1
p6000
V3
sVoverall3
p6001
V1
sVoverall2
p6002
V2
sVoverall4
p6003
V5
sa(dp6004
Vrt
p6005
I60652
sVc_id
p6006
I172
sVphase
p6007
VFINAL-OVERALL
p6008
sVbackground
p6009
V0
sVoverall1
p6010
V1
sVoverall3
p6011
V4
sVoverall2
p6012
V1
sVoverall4
p6013
V2
sa(dp6014
Vrt
p6015
I22331
sVc_id
p6016
I574
sVphase
p6017
VFINAL-OVERALL
p6018
sVbackground
p6019
V1
sVoverall1
p6020
V4
sVoverall3
p6021
V2
sVoverall2
p6022
V1
sVoverall4
p6023
V1
sa(dp6024
Vrt
p6025
I37441
sVc_id
p6026
I536
sVphase
p6027
VFINAL-OVERALL
p6028
sVbackground
p6029
V1
sVoverall1
p6030
V1
sVoverall3
p6031
V4
sVoverall2
p6032
V5
sVoverall4
p6033
V5
sa(dp6034
Vrt
p6035
I53396
sVc_id
p6036
I976
sVphase
p6037
VFINAL-OVERALL
p6038
sVbackground
p6039
V1
sVoverall1
p6040
V5
sVoverall3
p6041
V4
sVoverall2
p6042
V2
sVoverall4
p6043
V1
sa(dp6044
Vrt
p6045
I20336
sVc_id
p6046
I69
sVphase
p6047
VFINAL-OVERALL
p6048
sVbackground
p6049
V1
sVoverall1
p6050
V1
sVoverall3
p6051
V1
sVoverall2
p6052
V5
sVoverall4
p6053
V5
sa(dp6054
Vrt
p6055
I24620
sVc_id
p6056
I955
sVphase
p6057
VFINAL-OVERALL
p6058
sVbackground
p6059
V1
sVoverall1
p6060
V3
sVoverall3
p6061
V5
sVoverall2
p6062
V1
sVoverall4
p6063
V1
sa(dp6064
Vrt
p6065
I42232
sVc_id
p6066
I259
sVphase
p6067
VFINAL-OVERALL
p6068
sVbackground
p6069
V1
sVoverall1
p6070
V1
sVoverall3
p6071
V2
sVoverall2
p6072
V4
sVoverall4
p6073
V5
sa(dp6074
Vrt
p6075
I22367
sVc_id
p6076
I192
sVphase
p6077
VFINAL-OVERALL
p6078
sVbackground
p6079
V1
sVoverall1
p6080
V1
sVoverall3
p6081
V5
sVoverall2
p6082
V1
sVoverall4
p6083
V5
sa(dp6084
Vrt
p6085
I31398
sVc_id
p6086
I262
sVphase
p6087
VFINAL-OVERALL
p6088
sVbackground
p6089
V0
sVoverall1
p6090
V5
sVoverall3
p6091
V2
sVoverall2
p6092
V1
sVoverall4
p6093
V3
sa(dp6094
Vrt
p6095
I19503
sVc_id
p6096
I246
sVphase
p6097
VFINAL-OVERALL
p6098
sVbackground
p6099
V1
sVoverall1
p6100
V5
sVoverall3
p6101
V4
sVoverall2
p6102
V2
sVoverall4
p6103
V1
sa(dp6104
Vrt
p6105
I254888
sVc_id
p6106
I391
sVphase
p6107
VFINAL-OVERALL
p6108
sVbackground
p6109
V1
sVoverall1
p6110
V2
sVoverall3
p6111
V1
sVoverall2
p6112
V5
sVoverall4
p6113
V1
sa(dp6114
Vrt
p6115
I26709
sVc_id
p6116
I286
sVphase
p6117
VFINAL-OVERALL
p6118
sVbackground
p6119
V1
sVoverall1
p6120
V4
sVoverall3
p6121
V3
sVoverall2
p6122
V5
sVoverall4
p6123
V3
sa(dp6124
Vrt
p6125
I25981
sVc_id
p6126
I251
sVphase
p6127
VFINAL-OVERALL
p6128
sVbackground
p6129
V1
sVoverall1
p6130
V1
sVoverall3
p6131
V5
sVoverall2
p6132
V1
sVoverall4
p6133
V4
sa(dp6134
Vrt
p6135
I26138
sVc_id
p6136
I380
sVphase
p6137
VFINAL-OVERALL
p6138
sVbackground
p6139
V1
sVoverall1
p6140
V4
sVoverall3
p6141
V5
sVoverall2
p6142
V1
sVoverall4
p6143
V3
sa(dp6144
Vrt
p6145
I17930
sVc_id
p6146
I500
sVphase
p6147
VFINAL-OVERALL
p6148
sVbackground
p6149
V1
sVoverall1
p6150
V1
sVoverall3
p6151
V4
sVoverall2
p6152
V1
sVoverall4
p6153
V2
sa(dp6154
Vrt
p6155
I19821
sVc_id
p6156
I807
sVphase
p6157
VFINAL-OVERALL
p6158
sVbackground
p6159
V1
sVoverall1
p6160
V3
sVoverall3
p6161
V4
sVoverall2
p6162
V1
sVoverall4
p6163
V5
sa(dp6164
Vrt
p6165
I22446
sVc_id
p6166
I212
sVphase
p6167
VFINAL-OVERALL
p6168
sVbackground
p6169
V1
sVoverall1
p6170
V1
sVoverall3
p6171
V3
sVoverall2
p6172
V5
sVoverall4
p6173
V1
sa(dp6174
Vrt
p6175
I22943
sVc_id
p6176
I216
sVphase
p6177
VFINAL-OVERALL
p6178
sVbackground
p6179
V1
sVoverall1
p6180
V5
sVoverall3
p6181
V1
sVoverall2
p6182
V5
sVoverall4
p6183
V1
sa(dp6184
Vrt
p6185
I30819
sVc_id
p6186
I123
sVphase
p6187
VFINAL-OVERALL
p6188
sVbackground
p6189
V1
sVoverall1
p6190
V5
sVoverall3
p6191
V1
sVoverall2
p6192
V3
sVoverall4
p6193
V3
sa(dp6194
Vrt
p6195
I25831
sVc_id
p6196
I194
sVphase
p6197
VFINAL-OVERALL
p6198
sVbackground
p6199
V1
sVoverall1
p6200
V1
sVoverall3
p6201
V1
sVoverall2
p6202
V5
sVoverall4
p6203
V5
sa(dp6204
Vrt
p6205
I19074
sVc_id
p6206
I927
sVphase
p6207
VFINAL-OVERALL
p6208
sVbackground
p6209
V1
sVoverall1
p6210
V2
sVoverall3
p6211
V5
sVoverall2
p6212
V1
sVoverall4
p6213
V5
sa(dp6214
Vrt
p6215
I154275
sVc_id
p6216
I390
sVphase
p6217
VFINAL-OVERALL
p6218
sVbackground
p6219
V1
sVoverall1
p6220
V4
sVoverall3
p6221
V1
sVoverall2
p6222
V4
sVoverall4
p6223
V2
sa(dp6224
Vrt
p6225
I21436
sVc_id
p6226
I503
sVphase
p6227
VFINAL-OVERALL
p6228
sVbackground
p6229
V1
sVoverall1
p6230
V4
sVoverall3
p6231
V3
sVoverall2
p6232
V1
sVoverall4
p6233
V5
sa(dp6234
Vrt
p6235
I48872
sVc_id
p6236
I45
sVphase
p6237
VFINAL-OVERALL
p6238
sVbackground
p6239
V1
sVoverall1
p6240
V1
sVoverall3
p6241
V1
sVoverall2
p6242
V3
sVoverall4
p6243
V5
sa(dp6244
Vrt
p6245
I29420
sVc_id
p6246
I603
sVphase
p6247
VFINAL-OVERALL
p6248
sVbackground
p6249
V1
sVoverall1
p6250
V1
sVoverall3
p6251
V5
sVoverall2
p6252
V1
sVoverall4
p6253
V3
sa(dp6254
Vrt
p6255
I15379
sVc_id
p6256
I272
sVphase
p6257
VFINAL-OVERALL
p6258
sVbackground
p6259
V1
sVoverall1
p6260
V5
sVoverall3
p6261
V5
sVoverall2
p6262
V1
sVoverall4
p6263
V4
sa(dp6264
Vrt
p6265
I52738
sVc_id
p6266
I433
sVphase
p6267
VFINAL-OVERALL
p6268
sVbackground
p6269
V1
sVoverall1
p6270
V5
sVoverall3
p6271
V1
sVoverall2
p6272
V5
sVoverall4
p6273
V1
sa(dp6274
Vrt
p6275
I12418
sVc_id
p6276
I-1
sVphase
p6277
VFINAL-OVERALL
p6278
sVbackground
p6279
V1
sVoverall1
p6280
V5
sVoverall3
p6281
V1
sVoverall2
p6282
V5
sVoverall4
p6283
V1
sa(dp6284
Vrt
p6285
I18417
sVc_id
p6286
I489
sVphase
p6287
VFINAL-OVERALL
p6288
sVbackground
p6289
V1
sVoverall1
p6290
V1
sVoverall3
p6291
V1
sVoverall2
p6292
V5
sVoverall4
p6293
V4
sa(dp6294
Vrt
p6295
I23902
sVc_id
p6296
I2
sVphase
p6297
VFINAL-OVERALL
p6298
sVbackground
p6299
V1
sVoverall1
p6300
V1
sVoverall3
p6301
V5
sVoverall2
p6302
V3
sVoverall4
p6303
V3
sa(dp6304
Vrt
p6305
I26682
sVc_id
p6306
I359
sVphase
p6307
VFINAL-OVERALL
p6308
sVbackground
p6309
V1
sVoverall1
p6310
V4
sVoverall3
p6311
V5
sVoverall2
p6312
V1
sVoverall4
p6313
V5
sa(dp6314
Vrt
p6315
I31300
sVc_id
p6316
I80
sVphase
p6317
VFINAL-OVERALL
p6318
sVbackground
p6319
V1
sVoverall1
p6320
V1
sVoverall3
p6321
V2
sVoverall2
p6322
V5
sVoverall4
p6323
V3
sa(dp6324
Vrt
p6325
I12819
sVc_id
p6326
I-2
sVphase
p6327
VFINAL-OVERALL
p6328
sVbackground
p6329
V1
sVoverall1
p6330
V5
sVoverall3
p6331
V1
sVoverall2
p6332
V5
sVoverall4
p6333
V1
sa(dp6334
Vrt
p6335
I13513
sVc_id
p6336
I-4
sVphase
p6337
VFINAL-OVERALL
p6338
sVbackground
p6339
V1
sVoverall1
p6340
V5
sVoverall3
p6341
V1
sVoverall2
p6342
V5
sVoverall4
p6343
V2
sa(dp6344
Vrt
p6345
I36030
sVc_id
p6346
I945
sVphase
p6347
VFINAL-OVERALL
p6348
sVbackground
p6349
V1
sVoverall1
p6350
V3
sVoverall3
p6351
V3
sVoverall2
p6352
V1
sVoverall4
p6353
V1
sa(dp6354
Vrt
p6355
I22892
sVc_id
p6356
I161
sVphase
p6357
VFINAL-OVERALL
p6358
sVbackground
p6359
V1
sVoverall1
p6360
V2
sVoverall3
p6361
V1
sVoverall2
p6362
V1
sVoverall4
p6363
V1
sa(dp6364
Vrt
p6365
I29689
sVc_id
p6366
I809
sVphase
p6367
VFINAL-OVERALL
p6368
sVbackground
p6369
V1
sVoverall1
p6370
V3
sVoverall3
p6371
V5
sVoverall2
p6372
V1
sVoverall4
p6373
V5
sa(dp6374
Vrt
p6375
I27080
sVc_id
p6376
I943
sVphase
p6377
VFINAL-OVERALL
p6378
sVbackground
p6379
V0
sVoverall1
p6380
V3
sVoverall3
p6381
V1
sVoverall2
p6382
V1
sVoverall4
p6383
V2
sa(dp6384
Vrt
p6385
I38287
sVc_id
p6386
I20
sVphase
p6387
VFINAL-OVERALL
p6388
sVbackground
p6389
V0
sVoverall1
p6390
V2
sVoverall3
p6391
V1
sVoverall2
p6392
V1
sVoverall4
p6393
V1
sa(dp6394
Vrt
p6395
I24682
sVc_id
p6396
I851
sVphase
p6397
VFINAL-OVERALL
p6398
sVbackground
p6399
V1
sVoverall1
p6400
V5
sVoverall3
p6401
V1
sVoverall2
p6402
V1
sVoverall4
p6403
V2
sa(dp6404
Vrt
p6405
I17829
sVc_id
p6406
I665
sVphase
p6407
VFINAL-OVERALL
p6408
sVbackground
p6409
V1
sVoverall1
p6410
V5
sVoverall3
p6411
V3
sVoverall2
p6412
V3
sVoverall4
p6413
V1
sa(dp6414
Vrt
p6415
I24148
sVc_id
p6416
I491
sVphase
p6417
VFINAL-OVERALL
p6418
sVbackground
p6419
V1
sVoverall1
p6420
V1
sVoverall3
p6421
V4
sVoverall2
p6422
V2
sVoverall4
p6423
V1
sa(dp6424
Vrt
p6425
I22008
sVc_id
p6426
I963
sVphase
p6427
VFINAL-OVERALL
p6428
sVbackground
p6429
V1
sVoverall1
p6430
V3
sVoverall3
p6431
V1
sVoverall2
p6432
V3
sVoverall4
p6433
V4
sa(dp6434
Vrt
p6435
I10827
sVc_id
p6436
I494
sVphase
p6437
VFINAL-OVERALL
p6438
sVbackground
p6439
V1
sVoverall1
p6440
V1
sVoverall3
p6441
V4
sVoverall2
p6442
V5
sVoverall4
p6443
V5
sa(dp6444
Vrt
p6445
I12627
sVc_id
p6446
I164
sVphase
p6447
VFINAL-OVERALL
p6448
sVbackground
p6449
V1
sVoverall1
p6450
V1
sVoverall3
p6451
V4
sVoverall2
p6452
V4
sVoverall4
p6453
V1
sa(dp6454
Vrt
p6455
I16754
sVc_id
p6456
I939
sVphase
p6457
VFINAL-OVERALL
p6458
sVbackground
p6459
V1
sVoverall1
p6460
V5
sVoverall3
p6461
V1
sVoverall2
p6462
V1
sVoverall4
p6463
V5
sa(dp6464
Vrt
p6465
I16567
sVc_id
p6466
I156
sVphase
p6467
VFINAL-OVERALL
p6468
sVbackground
p6469
V1
sVoverall1
p6470
V1
sVoverall3
p6471
V5
sVoverall2
p6472
V1
sVoverall4
p6473
V5
sa(dp6474
Vrt
p6475
I17141
sVc_id
p6476
I424
sVphase
p6477
VFINAL-OVERALL
p6478
sVbackground
p6479
V1
sVoverall1
p6480
V5
sVoverall3
p6481
V1
sVoverall2
p6482
V1
sVoverall4
p6483
V1
sa(dp6484
Vrt
p6485
I26669
sVc_id
p6486
I928
sVphase
p6487
VFINAL-OVERALL
p6488
sVbackground
p6489
V0
sVoverall1
p6490
V1
sVoverall3
p6491
V3
sVoverall2
p6492
V3
sVoverall4
p6493
V3
sa(dp6494
Vrt
p6495
I22064
sVc_id
p6496
I862
sVphase
p6497
VFINAL-OVERALL
p6498
sVbackground
p6499
V1
sVoverall1
p6500
V1
sVoverall3
p6501
V1
sVoverall2
p6502
V1
sVoverall4
p6503
V5
sa(dp6504
Vrt
p6505
I28843
sVc_id
p6506
I728
sVphase
p6507
VFINAL-OVERALL
p6508
sVbackground
p6509
V1
sVoverall1
p6510
V5
sVoverall3
p6511
V1
sVoverall2
p6512
V1
sVoverall4
p6513
V4
sasS'AVD6HMIO1HLFI:3MMN5BL1WZ5UMAOJPROK8WW2QW13MB'
p6514
(lp6515
(dp6516
Vrt
p6517
I75226
sVc_id
p6518
I776
sVphase
p6519
VFINAL-OVERALL
p6520
sVbackground
p6521
V0
sVoverall1
p6522
V5
sVoverall3
p6523
V1
sVoverall2
p6524
V1
sVoverall4
p6525
V2
sa(dp6526
Vrt
p6527
I49204
sVc_id
p6528
I654
sVphase
p6529
VFINAL-OVERALL
p6530
sVbackground
p6531
V1
sVoverall1
p6532
V3
sVoverall3
p6533
V2
sVoverall2
p6534
V1
sVoverall4
p6535
V5
sa(dp6536
Vrt
p6537
I50485
sVc_id
p6538
I563
sVphase
p6539
VFINAL-OVERALL
p6540
sVbackground
p6541
V1
sVoverall1
p6542
V2
sVoverall3
p6543
V2
sVoverall2
p6544
V1
sVoverall4
p6545
V1
sa(dp6546
Vrt
p6547
I26620
sVc_id
p6548
I140
sVphase
p6549
VFINAL-OVERALL
p6550
sVbackground
p6551
V1
sVoverall1
p6552
V2
sVoverall3
p6553
V5
sVoverall2
p6554
V1
sVoverall4
p6555
V1
sa(dp6556
Vrt
p6557
I55103
sVc_id
p6558
I97
sVphase
p6559
VFINAL-OVERALL
p6560
sVbackground
p6561
V1
sVoverall1
p6562
V1
sVoverall3
p6563
V3
sVoverall2
p6564
V5
sVoverall4
p6565
V3
sa(dp6566
Vrt
p6567
I45892
sVc_id
p6568
I280
sVphase
p6569
VFINAL-OVERALL
p6570
sVbackground
p6571
V0
sVoverall1
p6572
V2
sVoverall3
p6573
V5
sVoverall2
p6574
V5
sVoverall4
p6575
V1
sa(dp6576
Vrt
p6577
I16204
sVc_id
p6578
I-3
sVphase
p6579
VFINAL-OVERALL
p6580
sVbackground
p6581
V1
sVoverall1
p6582
V5
sVoverall3
p6583
V1
sVoverall2
p6584
V5
sVoverall4
p6585
V1
sa(dp6586
Vrt
p6587
I61128
sVc_id
p6588
I414
sVphase
p6589
VFINAL-OVERALL
p6590
sVbackground
p6591
V1
sVoverall1
p6592
V3
sVoverall3
p6593
V2
sVoverall2
p6594
V5
sVoverall4
p6595
V2
sa(dp6596
Vrt
p6597
I68580
sVc_id
p6598
I764
sVphase
p6599
VFINAL-OVERALL
p6600
sVbackground
p6601
V1
sVoverall1
p6602
V1
sVoverall3
p6603
V1
sVoverall2
p6604
V5
sVoverall4
p6605
V3
sa(dp6606
Vrt
p6607
I102896
sVc_id
p6608
I259
sVphase
p6609
VFINAL-OVERALL
p6610
sVbackground
p6611
V1
sVoverall1
p6612
V2
sVoverall3
p6613
V1
sVoverall2
p6614
V1
sVoverall4
p6615
V5
sa(dp6616
Vrt
p6617
I68662
sVc_id
p6618
I120
sVphase
p6619
VFINAL-OVERALL
p6620
sVbackground
p6621
V0
sVoverall1
p6622
V1
sVoverall3
p6623
V5
sVoverall2
p6624
V1
sVoverall4
p6625
V1
sa(dp6626
Vrt
p6627
I34530
sVc_id
p6628
I93
sVphase
p6629
VFINAL-OVERALL
p6630
sVbackground
p6631
V1
sVoverall1
p6632
V5
sVoverall3
p6633
V5
sVoverall2
p6634
V1
sVoverall4
p6635
V1
sa(dp6636
Vrt
p6637
I73006
sVc_id
p6638
I565
sVphase
p6639
VFINAL-OVERALL
p6640
sVbackground
p6641
V0
sVoverall1
p6642
V3
sVoverall3
p6643
V3
sVoverall2
p6644
V2
sVoverall4
p6645
V4
sa(dp6646
Vrt
p6647
I173864
sVc_id
p6648
I154
sVphase
p6649
VFINAL-OVERALL
p6650
sVbackground
p6651
V0
sVoverall1
p6652
V1
sVoverall3
p6653
V1
sVoverall2
p6654
V3
sVoverall4
p6655
V4
sa(dp6656
Vrt
p6657
I29107
sVc_id
p6658
I574
sVphase
p6659
VFINAL-OVERALL
p6660
sVbackground
p6661
V1
sVoverall1
p6662
V5
sVoverall3
p6663
V1
sVoverall2
p6664
V1
sVoverall4
p6665
V1
sa(dp6666
Vrt
p6667
I41801
sVc_id
p6668
I701
sVphase
p6669
VFINAL-OVERALL
p6670
sVbackground
p6671
V1
sVoverall1
p6672
V1
sVoverall3
p6673
V1
sVoverall2
p6674
V2
sVoverall4
p6675
V5
sa(dp6676
Vrt
p6677
I62295
sVc_id
p6678
I559
sVphase
p6679
VFINAL-OVERALL
p6680
sVbackground
p6681
V1
sVoverall1
p6682
V3
sVoverall3
p6683
V1
sVoverall2
p6684
V3
sVoverall4
p6685
V1
sa(dp6686
Vrt
p6687
I17132
sVc_id
p6688
I-1
sVphase
p6689
VFINAL-OVERALL
p6690
sVbackground
p6691
V1
sVoverall1
p6692
V5
sVoverall3
p6693
V1
sVoverall2
p6694
V5
sVoverall4
p6695
V1
sa(dp6696
Vrt
p6697
I41917
sVc_id
p6698
I59
sVphase
p6699
VFINAL-OVERALL
p6700
sVbackground
p6701
V1
sVoverall1
p6702
V3
sVoverall3
p6703
V5
sVoverall2
p6704
V1
sVoverall4
p6705
V1
sa(dp6706
Vrt
p6707
I96299
sVc_id
p6708
I401
sVphase
p6709
VFINAL-OVERALL
p6710
sVbackground
p6711
V1
sVoverall1
p6712
V5
sVoverall3
p6713
V1
sVoverall2
p6714
V5
sVoverall4
p6715
V1
sa(dp6716
Vrt
p6717
I30790
sVc_id
p6718
I698
sVphase
p6719
VFINAL-OVERALL
p6720
sVbackground
p6721
V1
sVoverall1
p6722
V5
sVoverall3
p6723
V1
sVoverall2
p6724
V2
sVoverall4
p6725
V1
sa(dp6726
Vrt
p6727
I64226
sVc_id
p6728
I343
sVphase
p6729
VFINAL-OVERALL
p6730
sVbackground
p6731
V0
sVoverall1
p6732
V3
sVoverall3
p6733
V1
sVoverall2
p6734
V5
sVoverall4
p6735
V2
sa(dp6736
Vrt
p6737
I24896
sVc_id
p6738
I16
sVphase
p6739
VFINAL-OVERALL
p6740
sVbackground
p6741
V1
sVoverall1
p6742
V1
sVoverall3
p6743
V4
sVoverall2
p6744
V1
sVoverall4
p6745
V1
sa(dp6746
Vrt
p6747
I67503
sVc_id
p6748
I380
sVphase
p6749
VFINAL-OVERALL
p6750
sVbackground
p6751
V1
sVoverall1
p6752
V1
sVoverall3
p6753
V5
sVoverall2
p6754
V1
sVoverall4
p6755
V2
sa(dp6756
Vrt
p6757
I25882
sVc_id
p6758
I863
sVphase
p6759
VFINAL-OVERALL
p6760
sVbackground
p6761
V0
sVoverall1
p6762
V5
sVoverall3
p6763
V1
sVoverall2
p6764
V5
sVoverall4
p6765
V1
sa(dp6766
Vrt
p6767
I64788
sVc_id
p6768
I166
sVphase
p6769
VFINAL-OVERALL
p6770
sVbackground
p6771
V1
sVoverall1
p6772
V2
sVoverall3
p6773
V5
sVoverall2
p6774
V2
sVoverall4
p6775
V1
sa(dp6776
Vrt
p6777
I111320
sVc_id
p6778
I526
sVphase
p6779
VFINAL-OVERALL
p6780
sVbackground
p6781
V1
sVoverall1
p6782
V1
sVoverall3
p6783
V2
sVoverall2
p6784
V2
sVoverall4
p6785
V1
sa(dp6786
Vrt
p6787
I35718
sVc_id
p6788
I825
sVphase
p6789
VFINAL-OVERALL
p6790
sVbackground
p6791
V0
sVoverall1
p6792
V2
sVoverall3
p6793
V4
sVoverall2
p6794
V1
sVoverall4
p6795
V1
sa(dp6796
Vrt
p6797
I35081
sVc_id
p6798
I986
sVphase
p6799
VFINAL-OVERALL
p6800
sVbackground
p6801
V1
sVoverall1
p6802
V1
sVoverall3
p6803
V1
sVoverall2
p6804
V2
sVoverall4
p6805
V5
sa(dp6806
Vrt
p6807
I17268
sVc_id
p6808
I426
sVphase
p6809
VFINAL-OVERALL
p6810
sVbackground
p6811
V1
sVoverall1
p6812
V1
sVoverall3
p6813
V5
sVoverall2
p6814
V5
sVoverall4
p6815
V1
sa(dp6816
Vrt
p6817
I33247
sVc_id
p6818
I799
sVphase
p6819
VFINAL-OVERALL
p6820
sVbackground
p6821
V1
sVoverall1
p6822
V1
sVoverall3
p6823
V1
sVoverall2
p6824
V5
sVoverall4
p6825
V2
sa(dp6826
Vrt
p6827
I48042
sVc_id
p6828
I859
sVphase
p6829
VFINAL-OVERALL
p6830
sVbackground
p6831
V1
sVoverall1
p6832
V4
sVoverall3
p6833
V5
sVoverall2
p6834
V2
sVoverall4
p6835
V1
sa(dp6836
Vrt
p6837
I24876
sVc_id
p6838
I920
sVphase
p6839
VFINAL-OVERALL
p6840
sVbackground
p6841
V1
sVoverall1
p6842
V1
sVoverall3
p6843
V1
sVoverall2
p6844
V3
sVoverall4
p6845
V1
sa(dp6846
Vrt
p6847
I44279
sVc_id
p6848
I225
sVphase
p6849
VFINAL-OVERALL
p6850
sVbackground
p6851
V0
sVoverall1
p6852
V4
sVoverall3
p6853
V1
sVoverall2
p6854
V1
sVoverall4
p6855
V2
sa(dp6856
Vrt
p6857
I46231
sVc_id
p6858
I446
sVphase
p6859
VFINAL-OVERALL
p6860
sVbackground
p6861
V1
sVoverall1
p6862
V3
sVoverall3
p6863
V5
sVoverall2
p6864
V3
sVoverall4
p6865
V1
sa(dp6866
Vrt
p6867
I63268
sVc_id
p6868
I759
sVphase
p6869
VFINAL-OVERALL
p6870
sVbackground
p6871
V1
sVoverall1
p6872
V2
sVoverall3
p6873
V5
sVoverall2
p6874
V1
sVoverall4
p6875
V5
sa(dp6876
Vrt
p6877
I53704
sVc_id
p6878
I900
sVphase
p6879
VFINAL-OVERALL
p6880
sVbackground
p6881
V1
sVoverall1
p6882
V4
sVoverall3
p6883
V1
sVoverall2
p6884
V5
sVoverall4
p6885
V1
sa(dp6886
Vrt
p6887
I35960
sVc_id
p6888
I543
sVphase
p6889
VFINAL-OVERALL
p6890
sVbackground
p6891
V0
sVoverall1
p6892
V5
sVoverall3
p6893
V2
sVoverall2
p6894
V5
sVoverall4
p6895
V3
sa(dp6896
Vrt
p6897
I49182
sVc_id
p6898
I890
sVphase
p6899
VFINAL-OVERALL
p6900
sVbackground
p6901
V0
sVoverall1
p6902
V1
sVoverall3
p6903
V1
sVoverall2
p6904
V4
sVoverall4
p6905
V5
sa(dp6906
Vrt
p6907
I26164
sVc_id
p6908
I632
sVphase
p6909
VFINAL-OVERALL
p6910
sVbackground
p6911
V1
sVoverall1
p6912
V1
sVoverall3
p6913
V5
sVoverall2
p6914
V2
sVoverall4
p6915
V1
sa(dp6916
Vrt
p6917
I70233
sVc_id
p6918
I63
sVphase
p6919
VFINAL-OVERALL
p6920
sVbackground
p6921
V1
sVoverall1
p6922
V1
sVoverall3
p6923
V3
sVoverall2
p6924
V2
sVoverall4
p6925
V3
sa(dp6926
Vrt
p6927
I33341
sVc_id
p6928
I509
sVphase
p6929
VFINAL-OVERALL
p6930
sVbackground
p6931
V0
sVoverall1
p6932
V1
sVoverall3
p6933
V1
sVoverall2
p6934
V1
sVoverall4
p6935
V5
sa(dp6936
Vrt
p6937
I27172
sVc_id
p6938
I409
sVphase
p6939
VFINAL-OVERALL
p6940
sVbackground
p6941
V1
sVoverall1
p6942
V3
sVoverall3
p6943
V5
sVoverall2
p6944
V1
sVoverall4
p6945
V1
sa(dp6946
Vrt
p6947
I13561
sVc_id
p6948
I-4
sVphase
p6949
VFINAL-OVERALL
p6950
sVbackground
p6951
V1
sVoverall1
p6952
V5
sVoverall3
p6953
V1
sVoverall2
p6954
V5
sVoverall4
p6955
V1
sa(dp6956
Vrt
p6957
I27795
sVc_id
p6958
I621
sVphase
p6959
VFINAL-OVERALL
p6960
sVbackground
p6961
V1
sVoverall1
p6962
V5
sVoverall3
p6963
V1
sVoverall2
p6964
V1
sVoverall4
p6965
V4
sa(dp6966
Vrt
p6967
I47825
sVc_id
p6968
I706
sVphase
p6969
VFINAL-OVERALL
p6970
sVbackground
p6971
V1
sVoverall1
p6972
V5
sVoverall3
p6973
V1
sVoverall2
p6974
V1
sVoverall4
p6975
V3
sa(dp6976
Vrt
p6977
I20913
sVc_id
p6978
I185
sVphase
p6979
VFINAL-OVERALL
p6980
sVbackground
p6981
V1
sVoverall1
p6982
V3
sVoverall3
p6983
V1
sVoverall2
p6984
V3
sVoverall4
p6985
V1
sa(dp6986
Vrt
p6987
I14403
sVc_id
p6988
I-2
sVphase
p6989
VFINAL-OVERALL
p6990
sVbackground
p6991
V1
sVoverall1
p6992
V5
sVoverall3
p6993
V1
sVoverall2
p6994
V5
sVoverall4
p6995
V1
sa(dp6996
Vrt
p6997
I33793
sVc_id
p6998
I229
sVphase
p6999
VFINAL-OVERALL
p7000
sVbackground
p7001
V1
sVoverall1
p7002
V1
sVoverall3
p7003
V5
sVoverall2
p7004
V1
sVoverall4
p7005
V3
sa(dp7006
Vrt
p7007
I17853
sVc_id
p7008
I212
sVphase
p7009
VFINAL-OVERALL
p7010
sVbackground
p7011
V1
sVoverall1
p7012
V1
sVoverall3
p7013
V1
sVoverall2
p7014
V5
sVoverall4
p7015
V1
sa(dp7016
Vrt
p7017
I30467
sVc_id
p7018
I812
sVphase
p7019
VFINAL-OVERALL
p7020
sVbackground
p7021
V0
sVoverall1
p7022
V1
sVoverall3
p7023
V3
sVoverall2
p7024
V1
sVoverall4
p7025
V1
sa(dp7026
Vrt
p7027
I27666
sVc_id
p7028
I918
sVphase
p7029
VFINAL-OVERALL
p7030
sVbackground
p7031
V0
sVoverall1
p7032
V2
sVoverall3
p7033
V1
sVoverall2
p7034
V1
sVoverall4
p7035
V5
sa(dp7036
Vrt
p7037
I29984
sVc_id
p7038
I988
sVphase
p7039
VFINAL-OVERALL
p7040
sVbackground
p7041
V0
sVoverall1
p7042
V1
sVoverall3
p7043
V1
sVoverall2
p7044
V1
sVoverall4
p7045
V3
sa(dp7046
Vrt
p7047
I21622
sVc_id
p7048
I371
sVphase
p7049
VFINAL-OVERALL
p7050
sVbackground
p7051
V1
sVoverall1
p7052
V2
sVoverall3
p7053
V3
sVoverall2
p7054
V4
sVoverall4
p7055
V1
sa(dp7056
Vrt
p7057
I19227
sVc_id
p7058
I976
sVphase
p7059
VFINAL-OVERALL
p7060
sVbackground
p7061
V1
sVoverall1
p7062
V5
sVoverall3
p7063
V5
sVoverall2
p7064
V1
sVoverall4
p7065
V1
sa(dp7066
Vrt
p7067
I25866
sVc_id
p7068
I488
sVphase
p7069
VFINAL-OVERALL
p7070
sVbackground
p7071
V1
sVoverall1
p7072
V1
sVoverall3
p7073
V3
sVoverall2
p7074
V5
sVoverall4
p7075
V1
sa(dp7076
Vrt
p7077
I40702
sVc_id
p7078
I932
sVphase
p7079
VFINAL-OVERALL
p7080
sVbackground
p7081
V1
sVoverall1
p7082
V1
sVoverall3
p7083
V2
sVoverall2
p7084
V1
sVoverall4
p7085
V1
sa(dp7086
Vrt
p7087
I25595
sVc_id
p7088
I33
sVphase
p7089
VFINAL-OVERALL
p7090
sVbackground
p7091
V1
sVoverall1
p7092
V1
sVoverall3
p7093
V5
sVoverall2
p7094
V1
sVoverall4
p7095
V5
sa(dp7096
Vrt
p7097
I49037
sVc_id
p7098
I419
sVphase
p7099
VFINAL-OVERALL
p7100
sVbackground
p7101
V1
sVoverall1
p7102
V3
sVoverall3
p7103
V4
sVoverall2
p7104
V1
sVoverall4
p7105
V4
sasS'A1YVMDRR9W1LZ1:3RXCAC0YIRQGVXY3Q5LLM8KGAWH8G0'
p7106
(lp7107
(dp7108
Vrt
p7109
I262539
sVc_id
p7110
I335
sVphase
p7111
VFINAL-OVERALL
p7112
sVbackground
p7113
V0
sVoverall1
p7114
V3
sVoverall3
p7115
V1
sVoverall2
p7116
V5
sVoverall4
p7117
V2
sa(dp7118
Vrt
p7119
I47828
sVc_id
p7120
I434
sVphase
p7121
VFINAL-OVERALL
p7122
sVbackground
p7123
V1
sVoverall1
p7124
V4
sVoverall3
p7125
V1
sVoverall2
p7126
V2
sVoverall4
p7127
V2
sa(dp7128
Vrt
p7129
I31001
sVc_id
p7130
I72
sVphase
p7131
VFINAL-OVERALL
p7132
sVbackground
p7133
V1
sVoverall1
p7134
V1
sVoverall3
p7135
V2
sVoverall2
p7136
V4
sVoverall4
p7137
V1
sa(dp7138
Vrt
p7139
I536273
sVc_id
p7140
I626
sVphase
p7141
VFINAL-OVERALL
p7142
sVbackground
p7143
V0
sVoverall1
p7144
V5
sVoverall3
p7145
V1
sVoverall2
p7146
V2
sVoverall4
p7147
V5
sa(dp7148
Vrt
p7149
I25795
sVc_id
p7150
I342
sVphase
p7151
VFINAL-OVERALL
p7152
sVbackground
p7153
V1
sVoverall1
p7154
V3
sVoverall3
p7155
V4
sVoverall2
p7156
V2
sVoverall4
p7157
V5
sa(dp7158
Vrt
p7159
I29502
sVc_id
p7160
I54
sVphase
p7161
VFINAL-OVERALL
p7162
sVbackground
p7163
V0
sVoverall1
p7164
V4
sVoverall3
p7165
V2
sVoverall2
p7166
V3
sVoverall4
p7167
V1
sa(dp7168
Vrt
p7169
I411669
sVc_id
p7170
I696
sVphase
p7171
VFINAL-OVERALL
p7172
sVbackground
p7173
V1
sVoverall1
p7174
V2
sVoverall3
p7175
V1
sVoverall2
p7176
V1
sVoverall4
p7177
V5
sa(dp7178
Vrt
p7179
I19026
sVc_id
p7180
I599
sVphase
p7181
VFINAL-OVERALL
p7182
sVbackground
p7183
V1
sVoverall1
p7184
V1
sVoverall3
p7185
V1
sVoverall2
p7186
V4
sVoverall4
p7187
V1
sa(dp7188
Vrt
p7189
I18256
sVc_id
p7190
I48
sVphase
p7191
VFINAL-OVERALL
p7192
sVbackground
p7193
V1
sVoverall1
p7194
V5
sVoverall3
p7195
V1
sVoverall2
p7196
V5
sVoverall4
p7197
V2
sa(dp7198
Vrt
p7199
I33674
sVc_id
p7200
I259
sVphase
p7201
VFINAL-OVERALL
p7202
sVbackground
p7203
V1
sVoverall1
p7204
V1
sVoverall3
p7205
V2
sVoverall2
p7206
V1
sVoverall4
p7207
V4
sa(dp7208
Vrt
p7209
I231904
sVc_id
p7210
I574
sVphase
p7211
VFINAL-OVERALL
p7212
sVbackground
p7213
V0
sVoverall1
p7214
V2
sVoverall3
p7215
V1
sVoverall2
p7216
V1
sVoverall4
p7217
V2
sa(dp7218
Vrt
p7219
I16061
sVc_id
p7220
I895
sVphase
p7221
VFINAL-OVERALL
p7222
sVbackground
p7223
V1
sVoverall1
p7224
V1
sVoverall3
p7225
V1
sVoverall2
p7226
V1
sVoverall4
p7227
V5
sa(dp7228
Vrt
p7229
I31196
sVc_id
p7230
I956
sVphase
p7231
VFINAL-OVERALL
p7232
sVbackground
p7233
V1
sVoverall1
p7234
V2
sVoverall3
p7235
V2
sVoverall2
p7236
V5
sVoverall4
p7237
V1
sa(dp7238
Vrt
p7239
I17770
sVc_id
p7240
I710
sVphase
p7241
VFINAL-OVERALL
p7242
sVbackground
p7243
V1
sVoverall1
p7244
V1
sVoverall3
p7245
V1
sVoverall2
p7246
V1
sVoverall4
p7247
V1
sa(dp7248
Vrt
p7249
I469819
sVc_id
p7250
I102
sVphase
p7251
VFINAL-OVERALL
p7252
sVbackground
p7253
V1
sVoverall1
p7254
V1
sVoverall3
p7255
V4
sVoverall2
p7256
V1
sVoverall4
p7257
V1
sa(dp7258
Vrt
p7259
I35339
sVc_id
p7260
I381
sVphase
p7261
VFINAL-OVERALL
p7262
sVbackground
p7263
V1
sVoverall1
p7264
V1
sVoverall3
p7265
V3
sVoverall2
p7266
V3
sVoverall4
p7267
V1
sa(dp7268
Vrt
p7269
I12839
sVc_id
p7270
I736
sVphase
p7271
VFINAL-OVERALL
p7272
sVbackground
p7273
V0
sVoverall1
p7274
V1
sVoverall3
p7275
V1
sVoverall2
p7276
V2
sVoverall4
p7277
V1
sa(dp7278
Vrt
p7279
I91031
sVc_id
p7280
I149
sVphase
p7281
VFINAL-OVERALL
p7282
sVbackground
p7283
V1
sVoverall1
p7284
V4
sVoverall3
p7285
V1
sVoverall2
p7286
V1
sVoverall4
p7287
V1
sa(dp7288
Vrt
p7289
I14643
sVc_id
p7290
I110
sVphase
p7291
VFINAL-OVERALL
p7292
sVbackground
p7293
V1
sVoverall1
p7294
V5
sVoverall3
p7295
V1
sVoverall2
p7296
V1
sVoverall4
p7297
V5
sa(dp7298
Vrt
p7299
I149196
sVc_id
p7300
I861
sVphase
p7301
VFINAL-OVERALL
p7302
sVbackground
p7303
V1
sVoverall1
p7304
V4
sVoverall3
p7305
V1
sVoverall2
p7306
V2
sVoverall4
p7307
V2
sa(dp7308
Vrt
p7309
I89252
sVc_id
p7310
I-4
sVphase
p7311
VFINAL-OVERALL
p7312
sVbackground
p7313
V1
sVoverall1
p7314
V5
sVoverall3
p7315
V1
sVoverall2
p7316
V5
sVoverall4
p7317
V2
sa(dp7318
Vrt
p7319
I11225
sVc_id
p7320
I830
sVphase
p7321
VFINAL-OVERALL
p7322
sVbackground
p7323
V1
sVoverall1
p7324
V1
sVoverall3
p7325
V1
sVoverall2
p7326
V1
sVoverall4
p7327
V5
sa(dp7328
Vrt
p7329
I24617
sVc_id
p7330
I737
sVphase
p7331
VFINAL-OVERALL
p7332
sVbackground
p7333
V0
sVoverall1
p7334
V4
sVoverall3
p7335
V1
sVoverall2
p7336
V2
sVoverall4
p7337
V1
sa(dp7338
Vrt
p7339
I15580
sVc_id
p7340
I814
sVphase
p7341
VFINAL-OVERALL
p7342
sVbackground
p7343
V1
sVoverall1
p7344
V5
sVoverall3
p7345
V1
sVoverall2
p7346
V1
sVoverall4
p7347
V2
sa(dp7348
Vrt
p7349
I17151
sVc_id
p7350
I601
sVphase
p7351
VFINAL-OVERALL
p7352
sVbackground
p7353
V0
sVoverall1
p7354
V1
sVoverall3
p7355
V1
sVoverall2
p7356
V2
sVoverall4
p7357
V1
sa(dp7358
Vrt
p7359
I23128
sVc_id
p7360
I855
sVphase
p7361
VFINAL-OVERALL
p7362
sVbackground
p7363
V1
sVoverall1
p7364
V1
sVoverall3
p7365
V1
sVoverall2
p7366
V3
sVoverall4
p7367
V2
sa(dp7368
Vrt
p7369
I54026
sVc_id
p7370
I405
sVphase
p7371
VFINAL-OVERALL
p7372
sVbackground
p7373
V1
sVoverall1
p7374
V1
sVoverall3
p7375
V1
sVoverall2
p7376
V5
sVoverall4
p7377
V1
sa(dp7378
Vrt
p7379
I20634
sVc_id
p7380
I852
sVphase
p7381
VFINAL-OVERALL
p7382
sVbackground
p7383
V1
sVoverall1
p7384
V5
sVoverall3
p7385
V1
sVoverall2
p7386
V1
sVoverall4
p7387
V2
sa(dp7388
Vrt
p7389
I16973
sVc_id
p7390
I651
sVphase
p7391
VFINAL-OVERALL
p7392
sVbackground
p7393
V0
sVoverall1
p7394
V2
sVoverall3
p7395
V1
sVoverall2
p7396
V1
sVoverall4
p7397
V3
sa(dp7398
Vrt
p7399
I21000
sVc_id
p7400
I901
sVphase
p7401
VFINAL-OVERALL
p7402
sVbackground
p7403
V1
sVoverall1
p7404
V2
sVoverall3
p7405
V3
sVoverall2
p7406
V1
sVoverall4
p7407
V1
sa(dp7408
Vrt
p7409
I19100
sVc_id
p7410
I749
sVphase
p7411
VFINAL-OVERALL
p7412
sVbackground
p7413
V0
sVoverall1
p7414
V1
sVoverall3
p7415
V2
sVoverall2
p7416
V1
sVoverall4
p7417
V1
sa(dp7418
Vrt
p7419
I52126
sVc_id
p7420
I438
sVphase
p7421
VFINAL-OVERALL
p7422
sVbackground
p7423
V0
sVoverall1
p7424
V1
sVoverall3
p7425
V1
sVoverall2
p7426
V1
sVoverall4
p7427
V1
sa(dp7428
Vrt
p7429
I35018
sVc_id
p7430
I380
sVphase
p7431
VFINAL-OVERALL
p7432
sVbackground
p7433
V0
sVoverall1
p7434
V1
sVoverall3
p7435
V1
sVoverall2
p7436
V2
sVoverall4
p7437
V1
sa(dp7438
Vrt
p7439
I17041
sVc_id
p7440
I800
sVphase
p7441
VFINAL-OVERALL
p7442
sVbackground
p7443
V1
sVoverall1
p7444
V1
sVoverall3
p7445
V5
sVoverall2
p7446
V1
sVoverall4
p7447
V1
sa(dp7448
Vrt
p7449
I28376
sVc_id
p7450
I220
sVphase
p7451
VFINAL-OVERALL
p7452
sVbackground
p7453
V1
sVoverall1
p7454
V5
sVoverall3
p7455
V2
sVoverall2
p7456
V1
sVoverall4
p7457
V1
sa(dp7458
Vrt
p7459
I375164
sVc_id
p7460
I946
sVphase
p7461
VFINAL-OVERALL
p7462
sVbackground
p7463
V1
sVoverall1
p7464
V1
sVoverall3
p7465
V1
sVoverall2
p7466
V4
sVoverall4
p7467
V1
sa(dp7468
Vrt
p7469
I20360
sVc_id
p7470
I303
sVphase
p7471
VFINAL-OVERALL
p7472
sVbackground
p7473
V0
sVoverall1
p7474
V1
sVoverall3
p7475
V1
sVoverall2
p7476
V1
sVoverall4
p7477
V1
sa(dp7478
Vrt
p7479
I19680
sVc_id
p7480
I103
sVphase
p7481
VFINAL-OVERALL
p7482
sVbackground
p7483
V1
sVoverall1
p7484
V1
sVoverall3
p7485
V4
sVoverall2
p7486
V3
sVoverall4
p7487
V4
sa(dp7488
Vrt
p7489
I23167
sVc_id
p7490
I-1
sVphase
p7491
VFINAL-OVERALL
p7492
sVbackground
p7493
V1
sVoverall1
p7494
V5
sVoverall3
p7495
V1
sVoverall2
p7496
V4
sVoverall4
p7497
V1
sa(dp7498
Vrt
p7499
I13439
sVc_id
p7500
I976
sVphase
p7501
VFINAL-OVERALL
p7502
sVbackground
p7503
V1
sVoverall1
p7504
V4
sVoverall3
p7505
V4
sVoverall2
p7506
V1
sVoverall4
p7507
V1
sa(dp7508
Vrt
p7509
I23099
sVc_id
p7510
I116
sVphase
p7511
VFINAL-OVERALL
p7512
sVbackground
p7513
V1
sVoverall1
p7514
V5
sVoverall3
p7515
V1
sVoverall2
p7516
V1
sVoverall4
p7517
V1
sa(dp7518
Vrt
p7519
I21243
sVc_id
p7520
I888
sVphase
p7521
VFINAL-OVERALL
p7522
sVbackground
p7523
V1
sVoverall1
p7524
V3
sVoverall3
p7525
V5
sVoverall2
p7526
V1
sVoverall4
p7527
V1
sa(dp7528
Vrt
p7529
I156667
sVc_id
p7530
I212
sVphase
p7531
VFINAL-OVERALL
p7532
sVbackground
p7533
V1
sVoverall1
p7534
V1
sVoverall3
p7535
V2
sVoverall2
p7536
V5
sVoverall4
p7537
V1
sa(dp7538
Vrt
p7539
I18590
sVc_id
p7540
I714
sVphase
p7541
VFINAL-OVERALL
p7542
sVbackground
p7543
V0
sVoverall1
p7544
V4
sVoverall3
p7545
V1
sVoverall2
p7546
V1
sVoverall4
p7547
V1
sa(dp7548
Vrt
p7549
I31270
sVc_id
p7550
I803
sVphase
p7551
VFINAL-OVERALL
p7552
sVbackground
p7553
V1
sVoverall1
p7554
V4
sVoverall3
p7555
V4
sVoverall2
p7556
V1
sVoverall4
p7557
V2
sa(dp7558
Vrt
p7559
I27171
sVc_id
p7560
I210
sVphase
p7561
VFINAL-OVERALL
p7562
sVbackground
p7563
V0
sVoverall1
p7564
V1
sVoverall3
p7565
V2
sVoverall2
p7566
V1
sVoverall4
p7567
V2
sa(dp7568
Vrt
p7569
I79779
sVc_id
p7570
I674
sVphase
p7571
VFINAL-OVERALL
p7572
sVbackground
p7573
V1
sVoverall1
p7574
V4
sVoverall3
p7575
V4
sVoverall2
p7576
V1
sVoverall4
p7577
V1
sa(dp7578
Vrt
p7579
I22023
sVc_id
p7580
I162
sVphase
p7581
VFINAL-OVERALL
p7582
sVbackground
p7583
V1
sVoverall1
p7584
V4
sVoverall3
p7585
V2
sVoverall2
p7586
V1
sVoverall4
p7587
V1
sa(dp7588
Vrt
p7589
I79277
sVc_id
p7590
I586
sVphase
p7591
VFINAL-OVERALL
p7592
sVbackground
p7593
V0
sVoverall1
p7594
V1
sVoverall3
p7595
V1
sVoverall2
p7596
V1
sVoverall4
p7597
V1
sa(dp7598
Vrt
p7599
I14877
sVc_id
p7600
I767
sVphase
p7601
VFINAL-OVERALL
p7602
sVbackground
p7603
V1
sVoverall1
p7604
V4
sVoverall3
p7605
V4
sVoverall2
p7606
V4
sVoverall4
p7607
V2
sa(dp7608
Vrt
p7609
I11332
sVc_id
p7610
I738
sVphase
p7611
VFINAL-OVERALL
p7612
sVbackground
p7613
V0
sVoverall1
p7614
V1
sVoverall3
p7615
V2
sVoverall2
p7616
V1
sVoverall4
p7617
V1
sa(dp7618
Vrt
p7619
I13871
sVc_id
p7620
I-2
sVphase
p7621
VFINAL-OVERALL
p7622
sVbackground
p7623
V1
sVoverall1
p7624
V5
sVoverall3
p7625
V1
sVoverall2
p7626
V5
sVoverall4
p7627
V1
sa(dp7628
Vrt
p7629
I22513
sVc_id
p7630
I137
sVphase
p7631
VFINAL-OVERALL
p7632
sVbackground
p7633
V1
sVoverall1
p7634
V5
sVoverall3
p7635
V2
sVoverall2
p7636
V1
sVoverall4
p7637
V1
sa(dp7638
Vrt
p7639
I34506
sVc_id
p7640
I893
sVphase
p7641
VFINAL-OVERALL
p7642
sVbackground
p7643
V0
sVoverall1
p7644
V1
sVoverall3
p7645
V1
sVoverall2
p7646
V2
sVoverall4
p7647
V1
sa(dp7648
Vrt
p7649
I12914
sVc_id
p7650
I415
sVphase
p7651
VFINAL-OVERALL
p7652
sVbackground
p7653
V0
sVoverall1
p7654
V1
sVoverall3
p7655
V1
sVoverall2
p7656
V1
sVoverall4
p7657
V1
sa(dp7658
Vrt
p7659
I11516
sVc_id
p7660
I564
sVphase
p7661
VFINAL-OVERALL
p7662
sVbackground
p7663
V1
sVoverall1
p7664
V1
sVoverall3
p7665
V1
sVoverall2
p7666
V4
sVoverall4
p7667
V1
sa(dp7668
Vrt
p7669
I26330
sVc_id
p7670
I235
sVphase
p7671
VFINAL-OVERALL
p7672
sVbackground
p7673
V1
sVoverall1
p7674
V1
sVoverall3
p7675
V1
sVoverall2
p7676
V1
sVoverall4
p7677
V4
sa(dp7678
Vrt
p7679
I13263
sVc_id
p7680
I-3
sVphase
p7681
VFINAL-OVERALL
p7682
sVbackground
p7683
V1
sVoverall1
p7684
V5
sVoverall3
p7685
V1
sVoverall2
p7686
V5
sVoverall4
p7687
V1
sa(dp7688
Vrt
p7689
I13795
sVc_id
p7690
I926
sVphase
p7691
VFINAL-OVERALL
p7692
sVbackground
p7693
V1
sVoverall1
p7694
V5
sVoverall3
p7695
V1
sVoverall2
p7696
V2
sVoverall4
p7697
V1
sas.